
main.elf:     file format elf32-littleriscv


Disassembly of section .text:

00000000 <_isr_handler>:
       0:	0080006f          	j	8 <_isr_routine>
       4:	1440006f          	j	148 <_start>

00000008 <_isr_routine>:
       8:	f8010113          	addi	sp,sp,-128
       c:	00112023          	sw	ra,0(sp)
      10:	00312423          	sw	gp,8(sp)
      14:	00412623          	sw	tp,12(sp)
      18:	00512823          	sw	t0,16(sp)
      1c:	00612a23          	sw	t1,20(sp)
      20:	00712c23          	sw	t2,24(sp)
      24:	00812e23          	sw	s0,28(sp)
      28:	02912023          	sw	s1,32(sp)
      2c:	02a12223          	sw	a0,36(sp)
      30:	02b12423          	sw	a1,40(sp)
      34:	02c12623          	sw	a2,44(sp)
      38:	02d12823          	sw	a3,48(sp)
      3c:	02e12a23          	sw	a4,52(sp)
      40:	02f12c23          	sw	a5,56(sp)
      44:	03012e23          	sw	a6,60(sp)
      48:	05112023          	sw	a7,64(sp)
      4c:	05212223          	sw	s2,68(sp)
      50:	05312423          	sw	s3,72(sp)
      54:	05412623          	sw	s4,76(sp)
      58:	05512823          	sw	s5,80(sp)
      5c:	05612a23          	sw	s6,84(sp)
      60:	05712c23          	sw	s7,88(sp)
      64:	05812e23          	sw	s8,92(sp)
      68:	07912023          	sw	s9,96(sp)
      6c:	07a12223          	sw	s10,100(sp)
      70:	07b12423          	sw	s11,104(sp)
      74:	07c12623          	sw	t3,108(sp)
      78:	07d12823          	sw	t4,112(sp)
      7c:	07e12a23          	sw	t5,116(sp)
      80:	07f12c23          	sw	t6,120(sp)
      84:	342022f3          	csrr	t0,mcause
      88:	80000337          	lui	t1,0x80000
      8c:	02536463          	bltu	t1,t0,b4 <external_irq>
      90:	00028833          	add	a6,t0,zero
      94:	00b00313          	li	t1,11
      98:	00628463          	beq	t0,t1,a0 <skip_init_args>
      9c:	34102573          	csrr	a0,mepc

000000a0 <skip_init_args>:
      a0:	33d010ef          	jal	1bdc <handle_exception>
      a4:	341022f3          	csrr	t0,mepc
      a8:	00428293          	addi	t0,t0,4
      ac:	34129073          	csrw	mepc,t0
      b0:	0180006f          	j	c8 <restore>

000000b4 <external_irq>:
      b4:	800002b7          	lui	t0,0x80000
      b8:	fff28293          	addi	t0,t0,-1 # 7fffffff <_stack_end+0x7fefc02f>
      bc:	34202373          	csrr	t1,mcause
      c0:	0062f533          	and	a0,t0,t1
      c4:	0d8000ef          	jal	19c <handle_interrupt>

000000c8 <restore>:
      c8:	00012083          	lw	ra,0(sp)
      cc:	00812183          	lw	gp,8(sp)
      d0:	00c12203          	lw	tp,12(sp)
      d4:	01012283          	lw	t0,16(sp)
      d8:	01412303          	lw	t1,20(sp)
      dc:	01812383          	lw	t2,24(sp)
      e0:	01c12403          	lw	s0,28(sp)
      e4:	02012483          	lw	s1,32(sp)
      e8:	02412503          	lw	a0,36(sp)
      ec:	02812583          	lw	a1,40(sp)
      f0:	02c12603          	lw	a2,44(sp)
      f4:	03012683          	lw	a3,48(sp)
      f8:	03412703          	lw	a4,52(sp)
      fc:	03812783          	lw	a5,56(sp)
     100:	03c12803          	lw	a6,60(sp)
     104:	04012883          	lw	a7,64(sp)
     108:	04412903          	lw	s2,68(sp)
     10c:	04812983          	lw	s3,72(sp)
     110:	04c12a03          	lw	s4,76(sp)
     114:	05012a83          	lw	s5,80(sp)
     118:	05412b03          	lw	s6,84(sp)
     11c:	05812b83          	lw	s7,88(sp)
     120:	05c12c03          	lw	s8,92(sp)
     124:	06012c83          	lw	s9,96(sp)
     128:	06412d03          	lw	s10,100(sp)
     12c:	06812d83          	lw	s11,104(sp)
     130:	06c12e03          	lw	t3,108(sp)
     134:	07012e83          	lw	t4,112(sp)
     138:	07412f03          	lw	t5,116(sp)
     13c:	07812f83          	lw	t6,120(sp)
     140:	08010113          	addi	sp,sp,128
     144:	30200073          	mret

00000148 <_start>:
     148:	30401073          	csrw	mie,zero
     14c:	00104117          	auipc	sp,0x104
     150:	e8410113          	addi	sp,sp,-380 # 103fd0 <_stack_end>
     154:	00004197          	auipc	gp,0x4
     158:	f8118193          	addi	gp,gp,-127 # 40d5 <__global_pointer>
     15c:	00003517          	auipc	a0,0x3
     160:	6c450513          	addi	a0,a0,1732 # 3820 <welcome_msg>
     164:	00400893          	li	a7,4
     168:	00000073          	ecall
     16c:	2dc000ef          	jal	448 <main>

00000170 <loop>:
     170:	0000006f          	j	170 <loop>

00000174 <enable_interrupt>:
     174:	30486073          	csrsi	mie,16
     178:	3048e073          	csrsi	mie,17
     17c:	30496073          	csrsi	mie,18
     180:	00800293          	li	t0,8
     184:	3002a073          	csrs	mstatus,t0
     188:	00008067          	ret

0000018c <newGame>:
     18c:	53c0306f          	j	36c8 <start>

00000190 <gameOver>:
     190:	000047b7          	lui	a5,0x4
     194:	8e07aa23          	sw	zero,-1804(a5) # 38f4 <gameon>
     198:	00008067          	ret

0000019c <handle_interrupt>:
     19c:	fd010113          	addi	sp,sp,-48
     1a0:	02112623          	sw	ra,44(sp)
     1a4:	01000793          	li	a5,16
     1a8:	08f50063          	beq	a0,a5,228 <handle_interrupt+0x8c>
     1ac:	01100793          	li	a5,17
     1b0:	04f50263          	beq	a0,a5,1f4 <handle_interrupt+0x58>
     1b4:	01200793          	li	a5,18
     1b8:	00004737          	lui	a4,0x4
     1bc:	0ef51c63          	bne	a0,a5,2b4 <handle_interrupt+0x118>
     1c0:	040007b7          	lui	a5,0x4000
     1c4:	0dc7a683          	lw	a3,220(a5) # 40000dc <_stack_end+0x3efc10c>
     1c8:	00004737          	lui	a4,0x4
     1cc:	0016e693          	ori	a3,a3,1
     1d0:	0cd7ae23          	sw	a3,220(a5)
     1d4:	8f472783          	lw	a5,-1804(a4) # 38f4 <gameon>
     1d8:	ffd7f693          	andi	a3,a5,-3
     1dc:	10068263          	beqz	a3,2e0 <handle_interrupt+0x144>
     1e0:	00100713          	li	a4,1
     1e4:	08e78663          	beq	a5,a4,270 <handle_interrupt+0xd4>
     1e8:	02c12083          	lw	ra,44(sp)
     1ec:	03010113          	addi	sp,sp,48
     1f0:	00008067          	ret
     1f4:	00004737          	lui	a4,0x4
     1f8:	8f472783          	lw	a5,-1804(a4) # 38f4 <gameon>
     1fc:	00100693          	li	a3,1
     200:	06d78e63          	beq	a5,a3,27c <handle_interrupt+0xe0>
     204:	00200713          	li	a4,2
     208:	00e78a63          	beq	a5,a4,21c <handle_interrupt+0x80>
     20c:	0c078063          	beqz	a5,2cc <handle_interrupt+0x130>
     210:	02c12083          	lw	ra,44(sp)
     214:	03010113          	addi	sp,sp,48
     218:	00008067          	ret
     21c:	02c12083          	lw	ra,44(sp)
     220:	03010113          	addi	sp,sp,48
     224:	3e80106f          	j	160c <vga_draw_startscreen>
     228:	00004737          	lui	a4,0x4
     22c:	8f472783          	lw	a5,-1804(a4) # 38f4 <gameon>
     230:	00100693          	li	a3,1
     234:	fcd798e3          	bne	a5,a3,204 <handle_interrupt+0x68>
     238:	000046b7          	lui	a3,0x4
     23c:	8f06a583          	lw	a1,-1808(a3) # 38f0 <mult>
     240:	00300613          	li	a2,3
     244:	040006b7          	lui	a3,0x4000
     248:	02b64633          	div	a2,a2,a1
     24c:	02068693          	addi	a3,a3,32 # 4000020 <_stack_end+0x3efc050>
     250:	00d12e23          	sw	a3,28(sp)
     254:	000045b7          	lui	a1,0x4
     258:	c685a683          	lw	a3,-920(a1) # 3c68 <invocations>
     25c:	01c12503          	lw	a0,28(sp)
     260:	00f686b3          	add	a3,a3,a5
     264:	00051023          	sh	zero,0(a0)
     268:	c6d5a423          	sw	a3,-920(a1)
     26c:	0cc68e63          	beq	a3,a2,348 <handle_interrupt+0x1ac>
     270:	02c12083          	lw	ra,44(sp)
     274:	03010113          	addi	sp,sp,48
     278:	4700106f          	j	16e8 <vga_draw_game>
     27c:	040007b7          	lui	a5,0x4000
     280:	01c78793          	addi	a5,a5,28 # 400001c <_stack_end+0x3efc04c>
     284:	0007a783          	lw	a5,0(a5)
     288:	00d7f6b3          	and	a3,a5,a3
     28c:	06069263          	bnez	a3,2f0 <handle_interrupt+0x154>
     290:	0027f693          	andi	a3,a5,2
     294:	08069e63          	bnez	a3,330 <handle_interrupt+0x194>
     298:	1007f693          	andi	a3,a5,256
     29c:	06069e63          	bnez	a3,318 <handle_interrupt+0x17c>
     2a0:	2007f793          	andi	a5,a5,512
     2a4:	06079263          	bnez	a5,308 <handle_interrupt+0x16c>
     2a8:	040007b7          	lui	a5,0x4000
     2ac:	fff00693          	li	a3,-1
     2b0:	00d7ae23          	sw	a3,28(a5) # 400001c <_stack_end+0x3efc04c>
     2b4:	8f472783          	lw	a5,-1804(a4)
     2b8:	00200713          	li	a4,2
     2bc:	f6e780e3          	beq	a5,a4,21c <handle_interrupt+0x80>
     2c0:	00100713          	li	a4,1
     2c4:	fae786e3          	beq	a5,a4,270 <handle_interrupt+0xd4>
     2c8:	f40794e3          	bnez	a5,210 <handle_interrupt+0x74>
     2cc:	000047b7          	lui	a5,0x4
     2d0:	02c12083          	lw	ra,44(sp)
     2d4:	c6c7a503          	lw	a0,-916(a5) # 3c6c <scores>
     2d8:	03010113          	addi	sp,sp,48
     2dc:	3b40106f          	j	1690 <vga_draw_gameover>
     2e0:	00e12423          	sw	a4,8(sp)
     2e4:	3e4030ef          	jal	36c8 <start>
     2e8:	00812703          	lw	a4,8(sp)
     2ec:	fc9ff06f          	j	2b4 <handle_interrupt+0x118>
     2f0:	00e12623          	sw	a4,12(sp)
     2f4:	00f12423          	sw	a5,8(sp)
     2f8:	500020ef          	jal	27f8 <right>
     2fc:	00c12703          	lw	a4,12(sp)
     300:	00812783          	lw	a5,8(sp)
     304:	f8dff06f          	j	290 <handle_interrupt+0xf4>
     308:	00e12423          	sw	a4,8(sp)
     30c:	678020ef          	jal	2984 <left>
     310:	00812703          	lw	a4,8(sp)
     314:	f95ff06f          	j	2a8 <handle_interrupt+0x10c>
     318:	00e12623          	sw	a4,12(sp)
     31c:	00f12423          	sw	a5,8(sp)
     320:	00c030ef          	jal	332c <store>
     324:	00c12703          	lw	a4,12(sp)
     328:	00812783          	lw	a5,8(sp)
     32c:	f75ff06f          	j	2a0 <handle_interrupt+0x104>
     330:	00e12623          	sw	a4,12(sp)
     334:	00f12423          	sw	a5,8(sp)
     338:	29d020ef          	jal	2dd4 <rotate>
     33c:	00c12703          	lw	a4,12(sp)
     340:	00812783          	lw	a5,8(sp)
     344:	f55ff06f          	j	298 <handle_interrupt+0xfc>
     348:	00e12623          	sw	a4,12(sp)
     34c:	00f12423          	sw	a5,8(sp)
     350:	c605a423          	sw	zero,-920(a1)
     354:	591010ef          	jal	20e4 <reachedBottom>
     358:	00c12703          	lw	a4,12(sp)
     35c:	00812783          	lw	a5,8(sp)
     360:	00e12423          	sw	a4,8(sp)
     364:	00f50863          	beq	a0,a5,374 <handle_interrupt+0x1d8>
     368:	695020ef          	jal	31fc <down>
     36c:	00812703          	lw	a4,8(sp)
     370:	f45ff06f          	j	2b4 <handle_interrupt+0x118>
     374:	10c020ef          	jal	2480 <lockPos>
     378:	798020ef          	jal	2b10 <checkRows>
     37c:	209020ef          	jal	2d84 <score>
     380:	1a9020ef          	jal	2d28 <gameOverCheck>
     384:	00812703          	lw	a4,8(sp)
     388:	00051e63          	bnez	a0,3a4 <handle_interrupt+0x208>
     38c:	000047b7          	lui	a5,0x4
     390:	c6c7a503          	lw	a0,-916(a5) # 3c6c <scores>
     394:	8e072a23          	sw	zero,-1804(a4)
     398:	2f8010ef          	jal	1690 <vga_draw_gameover>
     39c:	00812703          	lw	a4,8(sp)
     3a0:	f15ff06f          	j	2b4 <handle_interrupt+0x118>
     3a4:	00e12423          	sw	a4,8(sp)
     3a8:	621010ef          	jal	21c8 <newBlock>
     3ac:	00812703          	lw	a4,8(sp)
     3b0:	f05ff06f          	j	2b4 <handle_interrupt+0x118>

000003b4 <labinit>:
     3b4:	fe010113          	addi	sp,sp,-32
     3b8:	00112e23          	sw	ra,28(sp)
     3bc:	db9ff0ef          	jal	174 <enable_interrupt>
     3c0:	040007b7          	lui	a5,0x4000
     3c4:	02078793          	addi	a5,a5,32 # 4000020 <_stack_end+0x3efc050>
     3c8:	00f12623          	sw	a5,12(sp)
     3cc:	00c12703          	lw	a4,12(sp)
     3d0:	0000c7b7          	lui	a5,0xc
     3d4:	6c078793          	addi	a5,a5,1728 # c6c0 <__global_pointer+0x85eb>
     3d8:	00072023          	sw	zero,0(a4)
     3dc:	00c12683          	lw	a3,12(sp)
     3e0:	02d00513          	li	a0,45
     3e4:	01c12083          	lw	ra,28(sp)
     3e8:	00868693          	addi	a3,a3,8
     3ec:	00d12623          	sw	a3,12(sp)
     3f0:	00c12683          	lw	a3,12(sp)
     3f4:	04000737          	lui	a4,0x4000
     3f8:	00100593          	li	a1,1
     3fc:	00f6a023          	sw	a5,0(a3)
     400:	00c12683          	lw	a3,12(sp)
     404:	30300613          	li	a2,771
     408:	00468693          	addi	a3,a3,4
     40c:	00d12623          	sw	a3,12(sp)
     410:	00c12683          	lw	a3,12(sp)
     414:	00a6a023          	sw	a0,0(a3)
     418:	00c12683          	lw	a3,12(sp)
     41c:	ff868693          	addi	a3,a3,-8
     420:	00d12623          	sw	a3,12(sp)
     424:	00c12683          	lw	a3,12(sp)
     428:	0006a683          	lw	a3,0(a3)
     42c:	00c12503          	lw	a0,12(sp)
     430:	0076e693          	ori	a3,a3,7
     434:	00d52023          	sw	a3,0(a0)
     438:	0cb72c23          	sw	a1,216(a4) # 40000d8 <_stack_end+0x3efc108>
     43c:	00c72c23          	sw	a2,24(a4)
     440:	02010113          	addi	sp,sp,32
     444:	00008067          	ret

00000448 <main>:
     448:	ff010113          	addi	sp,sp,-16
     44c:	00112623          	sw	ra,12(sp)
     450:	f65ff0ef          	jal	3b4 <labinit>
     454:	450000ef          	jal	8a4 <clear_screen>
     458:	1b4010ef          	jal	160c <vga_draw_startscreen>
     45c:	0000006f          	j	45c <main+0x14>

00000460 <draw_char.constprop.0>:
     460:	f9f60793          	addi	a5,a2,-97
     464:	0ff7f793          	zext.b	a5,a5
     468:	01900713          	li	a4,25
     46c:	00f76463          	bltu	a4,a5,474 <draw_char.constprop.0+0x14>
     470:	fe060613          	addi	a2,a2,-32
     474:	fd060613          	addi	a2,a2,-48
     478:	0ff67613          	zext.b	a2,a2
     47c:	02600793          	li	a5,38
     480:	16c7ec63          	bltu	a5,a2,5f8 <draw_char.constprop.0+0x198>
     484:	000047b7          	lui	a5,0x4
     488:	00261613          	slli	a2,a2,0x2
     48c:	cb078793          	addi	a5,a5,-848 # 3cb0 <CSWTCH.28>
     490:	00c787b3          	add	a5,a5,a2
     494:	0007a703          	lw	a4,0(a5)
     498:	00350693          	addi	a3,a0,3
     49c:	13f00813          	li	a6,319
     4a0:	00074783          	lbu	a5,0(a4)
     4a4:	00150e13          	addi	t3,a0,1
     4a8:	00250e93          	addi	t4,a0,2
     4ac:	00450f13          	addi	t5,a0,4
     4b0:	16d86663          	bltu	a6,a3,61c <draw_char.constprop.0+0x1bc>
     4b4:	00259693          	slli	a3,a1,0x2
     4b8:	00b686b3          	add	a3,a3,a1
     4bc:	00669693          	slli	a3,a3,0x6
     4c0:	00a686b3          	add	a3,a3,a0
     4c4:	00770313          	addi	t1,a4,7
     4c8:	01b00893          	li	a7,27
     4cc:	000045b7          	lui	a1,0x4
     4d0:	14000f93          	li	t6,320
     4d4:	0880006f          	j	55c <draw_char.constprop.0+0xfc>
     4d8:	08a86663          	bltu	a6,a0,564 <draw_char.constprop.0+0x104>
     4dc:	8d85a783          	lw	a5,-1832(a1) # 38d8 <draw_frame>
     4e0:	00d787b3          	add	a5,a5,a3
     4e4:	01178023          	sb	a7,0(a5)
     4e8:	00074783          	lbu	a5,0(a4)
     4ec:	0087f613          	andi	a2,a5,8
     4f0:	00060a63          	beqz	a2,504 <draw_char.constprop.0+0xa4>
     4f4:	8d85a783          	lw	a5,-1832(a1)
     4f8:	00d787b3          	add	a5,a5,a3
     4fc:	011780a3          	sb	a7,1(a5)
     500:	00074783          	lbu	a5,0(a4)
     504:	0047f613          	andi	a2,a5,4
     508:	00060a63          	beqz	a2,51c <draw_char.constprop.0+0xbc>
     50c:	8d85a783          	lw	a5,-1832(a1)
     510:	00d787b3          	add	a5,a5,a3
     514:	01178123          	sb	a7,2(a5)
     518:	00074783          	lbu	a5,0(a4)
     51c:	0027f613          	andi	a2,a5,2
     520:	00060a63          	beqz	a2,534 <draw_char.constprop.0+0xd4>
     524:	8d85a783          	lw	a5,-1832(a1)
     528:	00d787b3          	add	a5,a5,a3
     52c:	011781a3          	sb	a7,3(a5)
     530:	00074783          	lbu	a5,0(a4)
     534:	0017f793          	andi	a5,a5,1
     538:	00078a63          	beqz	a5,54c <draw_char.constprop.0+0xec>
     53c:	01ff0863          	beq	t5,t6,54c <draw_char.constprop.0+0xec>
     540:	8d85a783          	lw	a5,-1832(a1)
     544:	00d787b3          	add	a5,a5,a3
     548:	01178223          	sb	a7,4(a5)
     54c:	00170713          	addi	a4,a4,1
     550:	0ae30263          	beq	t1,a4,5f4 <draw_char.constprop.0+0x194>
     554:	00074783          	lbu	a5,0(a4)
     558:	14068693          	addi	a3,a3,320
     55c:	0107f613          	andi	a2,a5,16
     560:	f6061ce3          	bnez	a2,4d8 <draw_char.constprop.0+0x78>
     564:	0087f613          	andi	a2,a5,8
     568:	00060463          	beqz	a2,570 <draw_char.constprop.0+0x110>
     56c:	f9c874e3          	bgeu	a6,t3,4f4 <draw_char.constprop.0+0x94>
     570:	0047f613          	andi	a2,a5,4
     574:	fa0604e3          	beqz	a2,51c <draw_char.constprop.0+0xbc>
     578:	fbd862e3          	bltu	a6,t4,51c <draw_char.constprop.0+0xbc>
     57c:	f91ff06f          	j	50c <draw_char.constprop.0+0xac>
     580:	00a686b3          	add	a3,a3,a0
     584:	00770593          	addi	a1,a4,7
     588:	00004337          	lui	t1,0x4
     58c:	01b00893          	li	a7,27
     590:	00c0006f          	j	59c <draw_char.constprop.0+0x13c>
     594:	00074783          	lbu	a5,0(a4)
     598:	14068693          	addi	a3,a3,320
     59c:	0107f613          	andi	a2,a5,16
     5a0:	00060c63          	beqz	a2,5b8 <draw_char.constprop.0+0x158>
     5a4:	00a86a63          	bltu	a6,a0,5b8 <draw_char.constprop.0+0x158>
     5a8:	8d832783          	lw	a5,-1832(t1) # 38d8 <draw_frame>
     5ac:	00d787b3          	add	a5,a5,a3
     5b0:	01178023          	sb	a7,0(a5)
     5b4:	00074783          	lbu	a5,0(a4)
     5b8:	0087f613          	andi	a2,a5,8
     5bc:	00060c63          	beqz	a2,5d4 <draw_char.constprop.0+0x174>
     5c0:	01c86a63          	bltu	a6,t3,5d4 <draw_char.constprop.0+0x174>
     5c4:	8d832783          	lw	a5,-1832(t1)
     5c8:	00d787b3          	add	a5,a5,a3
     5cc:	011780a3          	sb	a7,1(a5)
     5d0:	00074783          	lbu	a5,0(a4)
     5d4:	0047f793          	andi	a5,a5,4
     5d8:	00078a63          	beqz	a5,5ec <draw_char.constprop.0+0x18c>
     5dc:	010e9863          	bne	t4,a6,5ec <draw_char.constprop.0+0x18c>
     5e0:	8d832783          	lw	a5,-1832(t1)
     5e4:	00d787b3          	add	a5,a5,a3
     5e8:	01178123          	sb	a7,2(a5)
     5ec:	00170713          	addi	a4,a4,1
     5f0:	fab712e3          	bne	a4,a1,594 <draw_char.constprop.0+0x134>
     5f4:	00008067          	ret
     5f8:	00004737          	lui	a4,0x4
     5fc:	00350693          	addi	a3,a0,3
     600:	13f00813          	li	a6,319
     604:	fac70713          	addi	a4,a4,-84 # 3fac <GLYPH_SPACE.26>
     608:	00000793          	li	a5,0
     60c:	00150e13          	addi	t3,a0,1
     610:	00250e93          	addi	t4,a0,2
     614:	00450f13          	addi	t5,a0,4
     618:	e8d87ee3          	bgeu	a6,a3,4b4 <draw_char.constprop.0+0x54>
     61c:	00259693          	slli	a3,a1,0x2
     620:	00b686b3          	add	a3,a3,a1
     624:	00669693          	slli	a3,a3,0x6
     628:	f5e86ce3          	bltu	a6,t5,580 <draw_char.constprop.0+0x120>
     62c:	ffc68693          	addi	a3,a3,-4
     630:	00770593          	addi	a1,a4,7
     634:	00004837          	lui	a6,0x4
     638:	01b00513          	li	a0,27
     63c:	0017f793          	andi	a5,a5,1
     640:	00468613          	addi	a2,a3,4
     644:	00170713          	addi	a4,a4,1
     648:	00078863          	beqz	a5,658 <draw_char.constprop.0+0x1f8>
     64c:	8d882783          	lw	a5,-1832(a6) # 38d8 <draw_frame>
     650:	00c787b3          	add	a5,a5,a2
     654:	00a78023          	sb	a0,0(a5)
     658:	f8b70ee3          	beq	a4,a1,5f4 <draw_char.constprop.0+0x194>
     65c:	00074783          	lbu	a5,0(a4)
     660:	14068693          	addi	a3,a3,320
     664:	fd9ff06f          	j	63c <draw_char.constprop.0+0x1dc>

00000668 <draw_char.constprop.1>:
     668:	f9f60793          	addi	a5,a2,-97
     66c:	0ff7f793          	zext.b	a5,a5
     670:	01900713          	li	a4,25
     674:	00f76463          	bltu	a4,a5,67c <draw_char.constprop.1+0x14>
     678:	fe060613          	addi	a2,a2,-32
     67c:	fd060613          	addi	a2,a2,-48
     680:	0ff67613          	zext.b	a2,a2
     684:	02600793          	li	a5,38
     688:	16c7ec63          	bltu	a5,a2,800 <__heap_size>
     68c:	000047b7          	lui	a5,0x4
     690:	00261613          	slli	a2,a2,0x2
     694:	cb078793          	addi	a5,a5,-848 # 3cb0 <CSWTCH.28>
     698:	00c787b3          	add	a5,a5,a2
     69c:	0007a703          	lw	a4,0(a5)
     6a0:	00350693          	addi	a3,a0,3
     6a4:	13f00813          	li	a6,319
     6a8:	00074783          	lbu	a5,0(a4)
     6ac:	00150e13          	addi	t3,a0,1
     6b0:	00250e93          	addi	t4,a0,2
     6b4:	00450f13          	addi	t5,a0,4
     6b8:	16d86663          	bltu	a6,a3,824 <__heap_size+0x24>
     6bc:	00259693          	slli	a3,a1,0x2
     6c0:	00b686b3          	add	a3,a3,a1
     6c4:	00669693          	slli	a3,a3,0x6
     6c8:	00a686b3          	add	a3,a3,a0
     6cc:	00770313          	addi	t1,a4,7
     6d0:	ffc00893          	li	a7,-4
     6d4:	000045b7          	lui	a1,0x4
     6d8:	14000f93          	li	t6,320
     6dc:	0880006f          	j	764 <draw_char.constprop.1+0xfc>
     6e0:	08a86663          	bltu	a6,a0,76c <draw_char.constprop.1+0x104>
     6e4:	8d85a783          	lw	a5,-1832(a1) # 38d8 <draw_frame>
     6e8:	00d787b3          	add	a5,a5,a3
     6ec:	01178023          	sb	a7,0(a5)
     6f0:	00074783          	lbu	a5,0(a4)
     6f4:	0087f613          	andi	a2,a5,8
     6f8:	00060a63          	beqz	a2,70c <draw_char.constprop.1+0xa4>
     6fc:	8d85a783          	lw	a5,-1832(a1)
     700:	00d787b3          	add	a5,a5,a3
     704:	011780a3          	sb	a7,1(a5)
     708:	00074783          	lbu	a5,0(a4)
     70c:	0047f613          	andi	a2,a5,4
     710:	00060a63          	beqz	a2,724 <draw_char.constprop.1+0xbc>
     714:	8d85a783          	lw	a5,-1832(a1)
     718:	00d787b3          	add	a5,a5,a3
     71c:	01178123          	sb	a7,2(a5)
     720:	00074783          	lbu	a5,0(a4)
     724:	0027f613          	andi	a2,a5,2
     728:	00060a63          	beqz	a2,73c <draw_char.constprop.1+0xd4>
     72c:	8d85a783          	lw	a5,-1832(a1)
     730:	00d787b3          	add	a5,a5,a3
     734:	011781a3          	sb	a7,3(a5)
     738:	00074783          	lbu	a5,0(a4)
     73c:	0017f793          	andi	a5,a5,1
     740:	00078a63          	beqz	a5,754 <draw_char.constprop.1+0xec>
     744:	01ff0863          	beq	t5,t6,754 <draw_char.constprop.1+0xec>
     748:	8d85a783          	lw	a5,-1832(a1)
     74c:	00d787b3          	add	a5,a5,a3
     750:	01178223          	sb	a7,4(a5)
     754:	00170713          	addi	a4,a4,1
     758:	0ae30263          	beq	t1,a4,7fc <draw_char.constprop.1+0x194>
     75c:	00074783          	lbu	a5,0(a4)
     760:	14068693          	addi	a3,a3,320
     764:	0107f613          	andi	a2,a5,16
     768:	f6061ce3          	bnez	a2,6e0 <draw_char.constprop.1+0x78>
     76c:	0087f613          	andi	a2,a5,8
     770:	00060463          	beqz	a2,778 <draw_char.constprop.1+0x110>
     774:	f9c874e3          	bgeu	a6,t3,6fc <draw_char.constprop.1+0x94>
     778:	0047f613          	andi	a2,a5,4
     77c:	fa0604e3          	beqz	a2,724 <draw_char.constprop.1+0xbc>
     780:	fbd862e3          	bltu	a6,t4,724 <draw_char.constprop.1+0xbc>
     784:	f91ff06f          	j	714 <draw_char.constprop.1+0xac>
     788:	00a686b3          	add	a3,a3,a0
     78c:	00770593          	addi	a1,a4,7
     790:	00004337          	lui	t1,0x4
     794:	ffc00893          	li	a7,-4
     798:	00c0006f          	j	7a4 <draw_char.constprop.1+0x13c>
     79c:	00074783          	lbu	a5,0(a4)
     7a0:	14068693          	addi	a3,a3,320
     7a4:	0107f613          	andi	a2,a5,16
     7a8:	00060c63          	beqz	a2,7c0 <draw_char.constprop.1+0x158>
     7ac:	00a86a63          	bltu	a6,a0,7c0 <draw_char.constprop.1+0x158>
     7b0:	8d832783          	lw	a5,-1832(t1) # 38d8 <draw_frame>
     7b4:	00d787b3          	add	a5,a5,a3
     7b8:	01178023          	sb	a7,0(a5)
     7bc:	00074783          	lbu	a5,0(a4)
     7c0:	0087f613          	andi	a2,a5,8
     7c4:	00060c63          	beqz	a2,7dc <draw_char.constprop.1+0x174>
     7c8:	01c86a63          	bltu	a6,t3,7dc <draw_char.constprop.1+0x174>
     7cc:	8d832783          	lw	a5,-1832(t1)
     7d0:	00d787b3          	add	a5,a5,a3
     7d4:	011780a3          	sb	a7,1(a5)
     7d8:	00074783          	lbu	a5,0(a4)
     7dc:	0047f793          	andi	a5,a5,4
     7e0:	00078a63          	beqz	a5,7f4 <draw_char.constprop.1+0x18c>
     7e4:	010e9863          	bne	t4,a6,7f4 <draw_char.constprop.1+0x18c>
     7e8:	8d832783          	lw	a5,-1832(t1)
     7ec:	00d787b3          	add	a5,a5,a3
     7f0:	01178123          	sb	a7,2(a5)
     7f4:	00170713          	addi	a4,a4,1
     7f8:	fab712e3          	bne	a4,a1,79c <draw_char.constprop.1+0x134>
     7fc:	00008067          	ret
     800:	00004737          	lui	a4,0x4
     804:	00350693          	addi	a3,a0,3
     808:	13f00813          	li	a6,319
     80c:	fac70713          	addi	a4,a4,-84 # 3fac <GLYPH_SPACE.26>
     810:	00000793          	li	a5,0
     814:	00150e13          	addi	t3,a0,1
     818:	00250e93          	addi	t4,a0,2
     81c:	00450f13          	addi	t5,a0,4
     820:	e8d87ee3          	bgeu	a6,a3,6bc <draw_char.constprop.1+0x54>
     824:	00259693          	slli	a3,a1,0x2
     828:	00b686b3          	add	a3,a3,a1
     82c:	00669693          	slli	a3,a3,0x6
     830:	f5e86ce3          	bltu	a6,t5,788 <draw_char.constprop.1+0x120>
     834:	ffc68693          	addi	a3,a3,-4
     838:	00770593          	addi	a1,a4,7
     83c:	00004837          	lui	a6,0x4
     840:	ffc00513          	li	a0,-4
     844:	0017f793          	andi	a5,a5,1
     848:	00468613          	addi	a2,a3,4
     84c:	00170713          	addi	a4,a4,1
     850:	00078863          	beqz	a5,860 <__heap_size+0x60>
     854:	8d882783          	lw	a5,-1832(a6) # 38d8 <draw_frame>
     858:	00c787b3          	add	a5,a5,a2
     85c:	00a78023          	sb	a0,0(a5)
     860:	f8b70ee3          	beq	a4,a1,7fc <draw_char.constprop.1+0x194>
     864:	00074783          	lbu	a5,0(a4)
     868:	14068693          	addi	a3,a3,320
     86c:	fd9ff06f          	j	844 <__heap_size+0x44>

00000870 <put_pixel>:
     870:	14053793          	sltiu	a5,a0,320
     874:	02078663          	beqz	a5,8a0 <put_pixel+0x30>
     878:	0f05b793          	sltiu	a5,a1,240
     87c:	02078263          	beqz	a5,8a0 <put_pixel+0x30>
     880:	00259793          	slli	a5,a1,0x2
     884:	00004737          	lui	a4,0x4
     888:	8d872703          	lw	a4,-1832(a4) # 38d8 <draw_frame>
     88c:	00b787b3          	add	a5,a5,a1
     890:	00679793          	slli	a5,a5,0x6
     894:	00a787b3          	add	a5,a5,a0
     898:	00f70733          	add	a4,a4,a5
     89c:	00c70023          	sb	a2,0(a4)
     8a0:	00008067          	ret

000008a4 <clear_screen>:
     8a4:	000136b7          	lui	a3,0x13
     8a8:	c0068693          	addi	a3,a3,-1024 # 12c00 <__global_pointer+0xeb2b>
     8ac:	00000793          	li	a5,0
     8b0:	00004637          	lui	a2,0x4
     8b4:	8d862703          	lw	a4,-1832(a2) # 38d8 <draw_frame>
     8b8:	00f70733          	add	a4,a4,a5
     8bc:	00070023          	sb	zero,0(a4)
     8c0:	00178793          	addi	a5,a5,1
     8c4:	fed798e3          	bne	a5,a3,8b4 <clear_screen+0x10>
     8c8:	00008067          	ret

000008cc <fill_square>:
     8cc:	00159793          	slli	a5,a1,0x1
     8d0:	00b783b3          	add	t2,a5,a1
     8d4:	00459793          	slli	a5,a1,0x4
     8d8:	fc010113          	addi	sp,sp,-64
     8dc:	00239393          	slli	t2,t2,0x2
     8e0:	40b787b3          	sub	a5,a5,a1
     8e4:	00151713          	slli	a4,a0,0x1
     8e8:	02812e23          	sw	s0,60(sp)
     8ec:	02912c23          	sw	s1,56(sp)
     8f0:	03212a23          	sw	s2,52(sp)
     8f4:	03312823          	sw	s3,48(sp)
     8f8:	03412623          	sw	s4,44(sp)
     8fc:	03512423          	sw	s5,40(sp)
     900:	03612223          	sw	s6,36(sp)
     904:	03712023          	sw	s7,32(sp)
     908:	01812e23          	sw	s8,28(sp)
     90c:	00a70eb3          	add	t4,a4,a0
     910:	00138c13          	addi	s8,t2,1
     914:	00238b93          	addi	s7,t2,2
     918:	00338b13          	addi	s6,t2,3
     91c:	00438a93          	addi	s5,t2,4
     920:	00538a13          	addi	s4,t2,5
     924:	00638993          	addi	s3,t2,6
     928:	00738913          	addi	s2,t2,7
     92c:	00838493          	addi	s1,t2,8
     930:	00938413          	addi	s0,t2,9
     934:	00879793          	slli	a5,a5,0x8
     938:	002e9e93          	slli	t4,t4,0x2
     93c:	0f0c3c13          	sltiu	s8,s8,240
     940:	0f0bbb93          	sltiu	s7,s7,240
     944:	0f0b3b13          	sltiu	s6,s6,240
     948:	0f0aba93          	sltiu	s5,s5,240
     94c:	0f0a3a13          	sltiu	s4,s4,240
     950:	0f09b993          	sltiu	s3,s3,240
     954:	0f093913          	sltiu	s2,s2,240
     958:	0f04b493          	sltiu	s1,s1,240
     95c:	0f043413          	sltiu	s0,s0,240
     960:	06578e13          	addi	t3,a5,101
     964:	01de0e33          	add	t3,t3,t4
     968:	001c4c13          	xori	s8,s8,1
     96c:	001bcb93          	xori	s7,s7,1
     970:	001b4b13          	xori	s6,s6,1
     974:	001aca93          	xori	s5,s5,1
     978:	001a4a13          	xori	s4,s4,1
     97c:	0019c993          	xori	s3,s3,1
     980:	00194913          	xori	s2,s2,1
     984:	0014c493          	xori	s1,s1,1
     988:	00144413          	xori	s0,s0,1
     98c:	065e8e93          	addi	t4,t4,101
     990:	00865f93          	srli	t6,a2,0x8
     994:	00000313          	li	t1,0
     998:	40100813          	li	a6,1025
     99c:	00004f37          	lui	t5,0x4
     9a0:	00b00893          	li	a7,11
     9a4:	006857b3          	srl	a5,a6,t1
     9a8:	140eb513          	sltiu	a0,t4,320
     9ac:	0017f793          	andi	a5,a5,1
     9b0:	00154513          	xori	a0,a0,1
     9b4:	08079463          	bnez	a5,a3c <fill_square+0x170>
     9b8:	fff30293          	addi	t0,t1,-1
     9bc:	000e0593          	mv	a1,t3
     9c0:	00038693          	mv	a3,t2
     9c4:	00f85733          	srl	a4,a6,a5
     9c8:	00177713          	andi	a4,a4,1
     9cc:	02070c63          	beqz	a4,a04 <fill_square+0x138>
     9d0:	0f06b713          	sltiu	a4,a3,240
     9d4:	00070a63          	beqz	a4,9e8 <fill_square+0x11c>
     9d8:	00051863          	bnez	a0,9e8 <fill_square+0x11c>
     9dc:	8d8f2703          	lw	a4,-1832(t5) # 38d8 <draw_frame>
     9e0:	00b70733          	add	a4,a4,a1
     9e4:	01f70023          	sb	t6,0(a4)
     9e8:	00178793          	addi	a5,a5,1
     9ec:	0f178e63          	beq	a5,a7,ae8 <fill_square+0x21c>
     9f0:	00f85733          	srl	a4,a6,a5
     9f4:	00177713          	andi	a4,a4,1
     9f8:	00168693          	addi	a3,a3,1
     9fc:	14058593          	addi	a1,a1,320
     a00:	fc0718e3          	bnez	a4,9d0 <fill_square+0x104>
     a04:	ff77f713          	andi	a4,a5,-9
     a08:	fff70713          	addi	a4,a4,-1
     a0c:	12029463          	bnez	t0,b34 <fill_square+0x268>
     a10:	12071263          	bnez	a4,b34 <fill_square+0x268>
     a14:	0f06b713          	sltiu	a4,a3,240
     a18:	10070663          	beqz	a4,b24 <fill_square+0x258>
     a1c:	10051463          	bnez	a0,b24 <fill_square+0x258>
     a20:	8d8f2703          	lw	a4,-1832(t5)
     a24:	00178793          	addi	a5,a5,1
     a28:	00168693          	addi	a3,a3,1
     a2c:	00b70733          	add	a4,a4,a1
     a30:	01f70023          	sb	t6,0(a4)
     a34:	14058593          	addi	a1,a1,320
     a38:	f8dff06f          	j	9c4 <fill_square+0xf8>
     a3c:	0a051663          	bnez	a0,ae8 <fill_square+0x21c>
     a40:	000c1863          	bnez	s8,a50 <fill_square+0x184>
     a44:	8d8f2783          	lw	a5,-1832(t5)
     a48:	01c787b3          	add	a5,a5,t3
     a4c:	15f78023          	sb	t6,320(a5)
     a50:	000b9863          	bnez	s7,a60 <fill_square+0x194>
     a54:	8d8f2783          	lw	a5,-1832(t5)
     a58:	01c787b3          	add	a5,a5,t3
     a5c:	29f78023          	sb	t6,640(a5)
     a60:	000b1863          	bnez	s6,a70 <fill_square+0x1a4>
     a64:	8d8f2783          	lw	a5,-1832(t5)
     a68:	01c787b3          	add	a5,a5,t3
     a6c:	3df78023          	sb	t6,960(a5)
     a70:	000a9863          	bnez	s5,a80 <fill_square+0x1b4>
     a74:	8d8f2783          	lw	a5,-1832(t5)
     a78:	01c787b3          	add	a5,a5,t3
     a7c:	51f78023          	sb	t6,1280(a5)
     a80:	000a1863          	bnez	s4,a90 <fill_square+0x1c4>
     a84:	8d8f2783          	lw	a5,-1832(t5)
     a88:	01c787b3          	add	a5,a5,t3
     a8c:	65f78023          	sb	t6,1600(a5)
     a90:	00099863          	bnez	s3,aa0 <fill_square+0x1d4>
     a94:	8d8f2783          	lw	a5,-1832(t5)
     a98:	01c787b3          	add	a5,a5,t3
     a9c:	79f78023          	sb	t6,1920(a5)
     aa0:	00091c63          	bnez	s2,ab8 <fill_square+0x1ec>
     aa4:	8d8f2783          	lw	a5,-1832(t5)
     aa8:	7ffe0713          	addi	a4,t3,2047
     aac:	0c170713          	addi	a4,a4,193
     ab0:	00e787b3          	add	a5,a5,a4
     ab4:	01f78023          	sb	t6,0(a5)
     ab8:	00049c63          	bnez	s1,ad0 <fill_square+0x204>
     abc:	8d8f2783          	lw	a5,-1832(t5)
     ac0:	7ffe0713          	addi	a4,t3,2047
     ac4:	20170713          	addi	a4,a4,513
     ac8:	00e787b3          	add	a5,a5,a4
     acc:	01f78023          	sb	t6,0(a5)
     ad0:	00041c63          	bnez	s0,ae8 <fill_square+0x21c>
     ad4:	8d8f2783          	lw	a5,-1832(t5)
     ad8:	7ffe0713          	addi	a4,t3,2047
     adc:	34170713          	addi	a4,a4,833
     ae0:	00e787b3          	add	a5,a5,a4
     ae4:	01f78023          	sb	t6,0(a5)
     ae8:	00130313          	addi	t1,t1,1
     aec:	001e8e93          	addi	t4,t4,1
     af0:	001e0e13          	addi	t3,t3,1
     af4:	eb1318e3          	bne	t1,a7,9a4 <fill_square+0xd8>
     af8:	03c12403          	lw	s0,60(sp)
     afc:	03812483          	lw	s1,56(sp)
     b00:	03412903          	lw	s2,52(sp)
     b04:	03012983          	lw	s3,48(sp)
     b08:	02c12a03          	lw	s4,44(sp)
     b0c:	02812a83          	lw	s5,40(sp)
     b10:	02412b03          	lw	s6,36(sp)
     b14:	02012b83          	lw	s7,32(sp)
     b18:	01c12c03          	lw	s8,28(sp)
     b1c:	04010113          	addi	sp,sp,64
     b20:	00008067          	ret
     b24:	00178793          	addi	a5,a5,1
     b28:	00168693          	addi	a3,a3,1
     b2c:	14058593          	addi	a1,a1,320
     b30:	e95ff06f          	j	9c4 <fill_square+0xf8>
     b34:	01912c23          	sw	s9,24(sp)
     b38:	ff730c93          	addi	s9,t1,-9
     b3c:	000c9863          	bnez	s9,b4c <fill_square+0x280>
     b40:	00071663          	bnez	a4,b4c <fill_square+0x280>
     b44:	01812c83          	lw	s9,24(sp)
     b48:	e89ff06f          	j	9d0 <fill_square+0x104>
     b4c:	0f06b713          	sltiu	a4,a3,240
     b50:	00070e63          	beqz	a4,b6c <fill_square+0x2a0>
     b54:	00051c63          	bnez	a0,b6c <fill_square+0x2a0>
     b58:	8d8f2703          	lw	a4,-1832(t5)
     b5c:	00b70733          	add	a4,a4,a1
     b60:	00c70023          	sb	a2,0(a4)
     b64:	01812c83          	lw	s9,24(sp)
     b68:	e81ff06f          	j	9e8 <fill_square+0x11c>
     b6c:	01812c83          	lw	s9,24(sp)
     b70:	e79ff06f          	j	9e8 <fill_square+0x11c>

00000b74 <clear_square>:
     b74:	00159793          	slli	a5,a1,0x1
     b78:	00b78f33          	add	t5,a5,a1
     b7c:	00459793          	slli	a5,a1,0x4
     b80:	002f1f13          	slli	t5,t5,0x2
     b84:	fe010113          	addi	sp,sp,-32
     b88:	00151713          	slli	a4,a0,0x1
     b8c:	40b787b3          	sub	a5,a5,a1
     b90:	00a70e33          	add	t3,a4,a0
     b94:	00812e23          	sw	s0,28(sp)
     b98:	00912c23          	sw	s1,24(sp)
     b9c:	01212a23          	sw	s2,20(sp)
     ba0:	01312823          	sw	s3,16(sp)
     ba4:	01412623          	sw	s4,12(sp)
     ba8:	01512423          	sw	s5,8(sp)
     bac:	002f0a13          	addi	s4,t5,2
     bb0:	001f0a93          	addi	s5,t5,1
     bb4:	003f0993          	addi	s3,t5,3
     bb8:	004f0913          	addi	s2,t5,4
     bbc:	005f0493          	addi	s1,t5,5
     bc0:	006f0413          	addi	s0,t5,6
     bc4:	007f0393          	addi	t2,t5,7
     bc8:	008f0293          	addi	t0,t5,8
     bcc:	009f0f93          	addi	t6,t5,9
     bd0:	00879793          	slli	a5,a5,0x8
     bd4:	002e1e13          	slli	t3,t3,0x2
     bd8:	0f0aba93          	sltiu	s5,s5,240
     bdc:	0f0a3a13          	sltiu	s4,s4,240
     be0:	0f09b993          	sltiu	s3,s3,240
     be4:	0f093913          	sltiu	s2,s2,240
     be8:	0f04b493          	sltiu	s1,s1,240
     bec:	0f043413          	sltiu	s0,s0,240
     bf0:	0f03b393          	sltiu	t2,t2,240
     bf4:	0f02b293          	sltiu	t0,t0,240
     bf8:	0f0fbf93          	sltiu	t6,t6,240
     bfc:	06578313          	addi	t1,a5,101
     c00:	01c30333          	add	t1,t1,t3
     c04:	01612223          	sw	s6,4(sp)
     c08:	001aca93          	xori	s5,s5,1
     c0c:	001a4a13          	xori	s4,s4,1
     c10:	0019c993          	xori	s3,s3,1
     c14:	00194913          	xori	s2,s2,1
     c18:	0014c493          	xori	s1,s1,1
     c1c:	00144413          	xori	s0,s0,1
     c20:	0013c393          	xori	t2,t2,1
     c24:	0012c293          	xori	t0,t0,1
     c28:	001fcf93          	xori	t6,t6,1
     c2c:	065e0e13          	addi	t3,t3,101
     c30:	00000893          	li	a7,0
     c34:	40100513          	li	a0,1025
     c38:	00004eb7          	lui	t4,0x4
     c3c:	00b00813          	li	a6,11
     c40:	011557b3          	srl	a5,a0,a7
     c44:	140e3593          	sltiu	a1,t3,320
     c48:	0017f793          	andi	a5,a5,1
     c4c:	0015c593          	xori	a1,a1,1
     c50:	08079463          	bnez	a5,cd8 <clear_square+0x164>
     c54:	fff88b13          	addi	s6,a7,-1
     c58:	00030613          	mv	a2,t1
     c5c:	000f0693          	mv	a3,t5
     c60:	00f55733          	srl	a4,a0,a5
     c64:	00177713          	andi	a4,a4,1
     c68:	02070c63          	beqz	a4,ca0 <clear_square+0x12c>
     c6c:	0f06b713          	sltiu	a4,a3,240
     c70:	00070a63          	beqz	a4,c84 <clear_square+0x110>
     c74:	00059863          	bnez	a1,c84 <clear_square+0x110>
     c78:	8d8ea703          	lw	a4,-1832(t4) # 38d8 <draw_frame>
     c7c:	00c70733          	add	a4,a4,a2
     c80:	00070023          	sb	zero,0(a4)
     c84:	00178793          	addi	a5,a5,1
     c88:	0f078e63          	beq	a5,a6,d84 <clear_square+0x210>
     c8c:	00f55733          	srl	a4,a0,a5
     c90:	00177713          	andi	a4,a4,1
     c94:	00168693          	addi	a3,a3,1
     c98:	14060613          	addi	a2,a2,320
     c9c:	fc0718e3          	bnez	a4,c6c <clear_square+0xf8>
     ca0:	ff77f713          	andi	a4,a5,-9
     ca4:	fff70713          	addi	a4,a4,-1
     ca8:	120b1063          	bnez	s6,dc8 <clear_square+0x254>
     cac:	10071e63          	bnez	a4,dc8 <clear_square+0x254>
     cb0:	0f06b713          	sltiu	a4,a3,240
     cb4:	10070263          	beqz	a4,db8 <clear_square+0x244>
     cb8:	10059063          	bnez	a1,db8 <clear_square+0x244>
     cbc:	8d8ea703          	lw	a4,-1832(t4)
     cc0:	00178793          	addi	a5,a5,1
     cc4:	00168693          	addi	a3,a3,1
     cc8:	00c70733          	add	a4,a4,a2
     ccc:	00070023          	sb	zero,0(a4)
     cd0:	14060613          	addi	a2,a2,320
     cd4:	f8dff06f          	j	c60 <clear_square+0xec>
     cd8:	0a059663          	bnez	a1,d84 <clear_square+0x210>
     cdc:	000a9863          	bnez	s5,cec <clear_square+0x178>
     ce0:	8d8ea783          	lw	a5,-1832(t4)
     ce4:	006787b3          	add	a5,a5,t1
     ce8:	14078023          	sb	zero,320(a5)
     cec:	000a1863          	bnez	s4,cfc <clear_square+0x188>
     cf0:	8d8ea783          	lw	a5,-1832(t4)
     cf4:	006787b3          	add	a5,a5,t1
     cf8:	28078023          	sb	zero,640(a5)
     cfc:	00099863          	bnez	s3,d0c <clear_square+0x198>
     d00:	8d8ea783          	lw	a5,-1832(t4)
     d04:	006787b3          	add	a5,a5,t1
     d08:	3c078023          	sb	zero,960(a5)
     d0c:	00091863          	bnez	s2,d1c <clear_square+0x1a8>
     d10:	8d8ea783          	lw	a5,-1832(t4)
     d14:	006787b3          	add	a5,a5,t1
     d18:	50078023          	sb	zero,1280(a5)
     d1c:	00049863          	bnez	s1,d2c <clear_square+0x1b8>
     d20:	8d8ea783          	lw	a5,-1832(t4)
     d24:	006787b3          	add	a5,a5,t1
     d28:	64078023          	sb	zero,1600(a5)
     d2c:	00041863          	bnez	s0,d3c <clear_square+0x1c8>
     d30:	8d8ea783          	lw	a5,-1832(t4)
     d34:	006787b3          	add	a5,a5,t1
     d38:	78078023          	sb	zero,1920(a5)
     d3c:	00039c63          	bnez	t2,d54 <clear_square+0x1e0>
     d40:	8d8ea783          	lw	a5,-1832(t4)
     d44:	7ff30713          	addi	a4,t1,2047
     d48:	0c170713          	addi	a4,a4,193
     d4c:	00e787b3          	add	a5,a5,a4
     d50:	00078023          	sb	zero,0(a5)
     d54:	00029c63          	bnez	t0,d6c <clear_square+0x1f8>
     d58:	8d8ea783          	lw	a5,-1832(t4)
     d5c:	7ff30713          	addi	a4,t1,2047
     d60:	20170713          	addi	a4,a4,513
     d64:	00e787b3          	add	a5,a5,a4
     d68:	00078023          	sb	zero,0(a5)
     d6c:	000f9c63          	bnez	t6,d84 <clear_square+0x210>
     d70:	8d8ea783          	lw	a5,-1832(t4)
     d74:	7ff30713          	addi	a4,t1,2047
     d78:	34170713          	addi	a4,a4,833
     d7c:	00e787b3          	add	a5,a5,a4
     d80:	00078023          	sb	zero,0(a5)
     d84:	00188893          	addi	a7,a7,1
     d88:	001e0e13          	addi	t3,t3,1
     d8c:	00130313          	addi	t1,t1,1
     d90:	eb0898e3          	bne	a7,a6,c40 <clear_square+0xcc>
     d94:	01c12403          	lw	s0,28(sp)
     d98:	01812483          	lw	s1,24(sp)
     d9c:	01412903          	lw	s2,20(sp)
     da0:	01012983          	lw	s3,16(sp)
     da4:	00c12a03          	lw	s4,12(sp)
     da8:	00812a83          	lw	s5,8(sp)
     dac:	00412b03          	lw	s6,4(sp)
     db0:	02010113          	addi	sp,sp,32
     db4:	00008067          	ret
     db8:	00178793          	addi	a5,a5,1
     dbc:	00168693          	addi	a3,a3,1
     dc0:	14060613          	addi	a2,a2,320
     dc4:	e9dff06f          	j	c60 <clear_square+0xec>
     dc8:	01712023          	sw	s7,0(sp)
     dcc:	ff788b93          	addi	s7,a7,-9
     dd0:	000b9863          	bnez	s7,de0 <clear_square+0x26c>
     dd4:	00071663          	bnez	a4,de0 <clear_square+0x26c>
     dd8:	00012b83          	lw	s7,0(sp)
     ddc:	e91ff06f          	j	c6c <clear_square+0xf8>
     de0:	0f06b713          	sltiu	a4,a3,240
     de4:	00070e63          	beqz	a4,e00 <clear_square+0x28c>
     de8:	00059c63          	bnez	a1,e00 <clear_square+0x28c>
     dec:	8d8ea703          	lw	a4,-1832(t4)
     df0:	00c70733          	add	a4,a4,a2
     df4:	00070023          	sb	zero,0(a4)
     df8:	00012b83          	lw	s7,0(sp)
     dfc:	e89ff06f          	j	c84 <clear_square+0x110>
     e00:	00012b83          	lw	s7,0(sp)
     e04:	e81ff06f          	j	c84 <clear_square+0x110>

00000e08 <draw_grid>:
     e08:	00013637          	lui	a2,0x13
     e0c:	00013837          	lui	a6,0x13
     e10:	c6460613          	addi	a2,a2,-924 # 12c64 <__global_pointer+0xeb8f>
     e14:	ce880813          	addi	a6,a6,-792 # 12ce8 <__global_pointer+0xec13>
     e18:	06400513          	li	a0,100
     e1c:	000046b7          	lui	a3,0x4
     e20:	fb600593          	li	a1,-74
     e24:	00050793          	mv	a5,a0
     e28:	8d86a703          	lw	a4,-1832(a3) # 38d8 <draw_frame>
     e2c:	00f70733          	add	a4,a4,a5
     e30:	00b70023          	sb	a1,0(a4)
     e34:	14078793          	addi	a5,a5,320
     e38:	fec798e3          	bne	a5,a2,e28 <draw_grid+0x20>
     e3c:	00c78613          	addi	a2,a5,12
     e40:	00c50513          	addi	a0,a0,12
     e44:	ff0610e3          	bne	a2,a6,e24 <draw_grid+0x1c>
     e48:	fff00513          	li	a0,-1
     e4c:	00014837          	lui	a6,0x14
     e50:	00050893          	mv	a7,a0
     e54:	a9c80813          	addi	a6,a6,-1380 # 13a9c <__global_pointer+0xf9c7>
     e58:	f9c00613          	li	a2,-100
     e5c:	fb600593          	li	a1,-74
     e60:	01150e63          	beq	a0,a7,e7c <draw_grid+0x74>
     e64:	f8860793          	addi	a5,a2,-120
     e68:	8d86a703          	lw	a4,-1832(a3)
     e6c:	00f70733          	add	a4,a4,a5
     e70:	00b70023          	sb	a1,0(a4)
     e74:	00178793          	addi	a5,a5,1
     e78:	fef618e3          	bne	a2,a5,e68 <draw_grid+0x60>
     e7c:	7ff60613          	addi	a2,a2,2047
     e80:	70160613          	addi	a2,a2,1793
     e84:	00c50513          	addi	a0,a0,12
     e88:	fd061ce3          	bne	a2,a6,e60 <draw_grid+0x58>
     e8c:	00008067          	ret

00000e90 <draw_background>:
     e90:	00013637          	lui	a2,0x13
     e94:	00013837          	lui	a6,0x13
     e98:	c6460613          	addi	a2,a2,-924 # 12c64 <__global_pointer+0xeb8f>
     e9c:	ce880813          	addi	a6,a6,-792 # 12ce8 <__global_pointer+0xec13>
     ea0:	06400513          	li	a0,100
     ea4:	000046b7          	lui	a3,0x4
     ea8:	fb600593          	li	a1,-74
     eac:	00050793          	mv	a5,a0
     eb0:	8d86a703          	lw	a4,-1832(a3) # 38d8 <draw_frame>
     eb4:	00f70733          	add	a4,a4,a5
     eb8:	00b70023          	sb	a1,0(a4)
     ebc:	14078793          	addi	a5,a5,320
     ec0:	fec798e3          	bne	a5,a2,eb0 <draw_background+0x20>
     ec4:	00c78613          	addi	a2,a5,12
     ec8:	00c50513          	addi	a0,a0,12
     ecc:	ff0610e3          	bne	a2,a6,eac <draw_background+0x1c>
     ed0:	fff00513          	li	a0,-1
     ed4:	00014837          	lui	a6,0x14
     ed8:	00050893          	mv	a7,a0
     edc:	a9c80813          	addi	a6,a6,-1380 # 13a9c <__global_pointer+0xf9c7>
     ee0:	f9c00613          	li	a2,-100
     ee4:	fb600593          	li	a1,-74
     ee8:	01150e63          	beq	a0,a7,f04 <draw_background+0x74>
     eec:	f8860793          	addi	a5,a2,-120
     ef0:	8d86a703          	lw	a4,-1832(a3)
     ef4:	00f70733          	add	a4,a4,a5
     ef8:	00b70023          	sb	a1,0(a4)
     efc:	00178793          	addi	a5,a5,1
     f00:	fec798e3          	bne	a5,a2,ef0 <draw_background+0x60>
     f04:	7ff60613          	addi	a2,a2,2047
     f08:	70160613          	addi	a2,a2,1793
     f0c:	00c50513          	addi	a0,a0,12
     f10:	fd061ce3          	bne	a2,a6,ee8 <draw_background+0x58>
     f14:	00013637          	lui	a2,0x13
     f18:	c0060613          	addi	a2,a2,-1024 # 12c00 <__global_pointer+0xeb2b>
     f1c:	00000513          	li	a0,0
     f20:	07200593          	li	a1,114
     f24:	06400813          	li	a6,100
     f28:	00050793          	mv	a5,a0
     f2c:	8d86a703          	lw	a4,-1832(a3)
     f30:	00f70733          	add	a4,a4,a5
     f34:	00b70023          	sb	a1,0(a4)
     f38:	14078793          	addi	a5,a5,320
     f3c:	fef618e3          	bne	a2,a5,f2c <draw_background+0x9c>
     f40:	00150513          	addi	a0,a0,1
     f44:	00160613          	addi	a2,a2,1
     f48:	ff0510e3          	bne	a0,a6,f28 <draw_background+0x98>
     f4c:	00013637          	lui	a2,0x13
     f50:	cdd60613          	addi	a2,a2,-803 # 12cdd <__global_pointer+0xec08>
     f54:	0dd00513          	li	a0,221
     f58:	07200593          	li	a1,114
     f5c:	14000813          	li	a6,320
     f60:	00050793          	mv	a5,a0
     f64:	8d86a703          	lw	a4,-1832(a3)
     f68:	00f70733          	add	a4,a4,a5
     f6c:	00b70023          	sb	a1,0(a4)
     f70:	14078793          	addi	a5,a5,320
     f74:	fef618e3          	bne	a2,a5,f64 <draw_background+0xd4>
     f78:	00150513          	addi	a0,a0,1
     f7c:	00160613          	addi	a2,a2,1
     f80:	ff0510e3          	bne	a0,a6,f60 <draw_background+0xd0>
     f84:	00008067          	ret

00000f88 <draw_startscreen>:
     f88:	ff010113          	addi	sp,sp,-16
     f8c:	000136b7          	lui	a3,0x13
     f90:	00112623          	sw	ra,12(sp)
     f94:	00812423          	sw	s0,8(sp)
     f98:	00912223          	sw	s1,4(sp)
     f9c:	01212023          	sw	s2,0(sp)
     fa0:	c0068693          	addi	a3,a3,-1024 # 12c00 <__global_pointer+0xeb2b>
     fa4:	00000793          	li	a5,0
     fa8:	00004637          	lui	a2,0x4
     fac:	8d862703          	lw	a4,-1832(a2) # 38d8 <draw_frame>
     fb0:	00f70733          	add	a4,a4,a5
     fb4:	00070023          	sb	zero,0(a4)
     fb8:	00178793          	addi	a5,a5,1
     fbc:	fed798e3          	bne	a5,a3,fac <draw_startscreen+0x24>
     fc0:	000044b7          	lui	s1,0x4
     fc4:	e0c48493          	addi	s1,s1,-500 # 3e0c <CSWTCH.28+0x15c>
     fc8:	05400613          	li	a2,84
     fcc:	08e00413          	li	s0,142
     fd0:	0b200913          	li	s2,178
     fd4:	00040513          	mv	a0,s0
     fd8:	04600593          	li	a1,70
     fdc:	c84ff0ef          	jal	460 <draw_char.constprop.0>
     fe0:	00640413          	addi	s0,s0,6
     fe4:	00148493          	addi	s1,s1,1
     fe8:	0004c603          	lbu	a2,0(s1)
     fec:	ff2414e3          	bne	s0,s2,fd4 <draw_startscreen+0x4c>
     ff0:	00004437          	lui	s0,0x4
     ff4:	00004937          	lui	s2,0x4
     ff8:	e1440413          	addi	s0,s0,-492 # 3e14 <CSWTCH.28+0x164>
     ffc:	e2b90913          	addi	s2,s2,-469 # 3e2b <CSWTCH.28+0x17b>
    1000:	05b00493          	li	s1,91
    1004:	05000613          	li	a2,80
    1008:	00048513          	mv	a0,s1
    100c:	08200593          	li	a1,130
    1010:	e58ff0ef          	jal	668 <draw_char.constprop.1>
    1014:	00140413          	addi	s0,s0,1
    1018:	00648493          	addi	s1,s1,6
    101c:	00044603          	lbu	a2,0(s0)
    1020:	ff2414e3          	bne	s0,s2,1008 <draw_startscreen+0x80>
    1024:	00c12083          	lw	ra,12(sp)
    1028:	00812403          	lw	s0,8(sp)
    102c:	00412483          	lw	s1,4(sp)
    1030:	00012903          	lw	s2,0(sp)
    1034:	01010113          	addi	sp,sp,16
    1038:	00008067          	ret

0000103c <draw_gameover_screen>:
    103c:	fc010113          	addi	sp,sp,-64
    1040:	000136b7          	lui	a3,0x13
    1044:	02812c23          	sw	s0,56(sp)
    1048:	02112e23          	sw	ra,60(sp)
    104c:	02912a23          	sw	s1,52(sp)
    1050:	03212823          	sw	s2,48(sp)
    1054:	03312623          	sw	s3,44(sp)
    1058:	00050413          	mv	s0,a0
    105c:	c0068693          	addi	a3,a3,-1024 # 12c00 <__global_pointer+0xeb2b>
    1060:	00000793          	li	a5,0
    1064:	00004637          	lui	a2,0x4
    1068:	8d862703          	lw	a4,-1832(a2) # 38d8 <draw_frame>
    106c:	00f70733          	add	a4,a4,a5
    1070:	00070023          	sb	zero,0(a4)
    1074:	00178793          	addi	a5,a5,1
    1078:	fed798e3          	bne	a5,a3,1068 <draw_gameover_screen+0x2c>
    107c:	000048b7          	lui	a7,0x4
    1080:	00004f37          	lui	t5,0x4
    1084:	00005837          	lui	a6,0x5
    1088:	00005337          	lui	t1,0x5
    108c:	44980813          	addi	a6,a6,1097 # 5449 <__global_pointer+0x1374>
    1090:	e2c88893          	addi	a7,a7,-468 # 3e2c <CSWTCH.28+0x17c>
    1094:	cb0f0f13          	addi	t5,t5,-848 # 3cb0 <CSWTCH.28>
    1098:	47f30313          	addi	t1,t1,1151 # 547f <__global_pointer+0x13aa>
    109c:	04700793          	li	a5,71
    10a0:	01900e93          	li	t4,25
    10a4:	02600e13          	li	t3,38
    10a8:	00004fb7          	lui	t6,0x4
    10ac:	fc000593          	li	a1,-64
    10b0:	f9f78713          	addi	a4,a5,-97
    10b4:	0ff77713          	zext.b	a4,a4
    10b8:	00eee663          	bltu	t4,a4,10c4 <draw_gameover_screen+0x88>
    10bc:	fe078793          	addi	a5,a5,-32
    10c0:	0ff7f793          	zext.b	a5,a5
    10c4:	fd078793          	addi	a5,a5,-48
    10c8:	0ff7f793          	zext.b	a5,a5
    10cc:	3efe6063          	bltu	t3,a5,14ac <draw_gameover_screen+0x470>
    10d0:	00279793          	slli	a5,a5,0x2
    10d4:	00ff07b3          	add	a5,t5,a5
    10d8:	0007a683          	lw	a3,0(a5)
    10dc:	0006c783          	lbu	a5,0(a3)
    10e0:	80080713          	addi	a4,a6,-2048
    10e4:	f4070713          	addi	a4,a4,-192
    10e8:	00c0006f          	j	10f4 <draw_gameover_screen+0xb8>
    10ec:	0016c783          	lbu	a5,1(a3)
    10f0:	00168693          	addi	a3,a3,1
    10f4:	0107f513          	andi	a0,a5,16
    10f8:	00050a63          	beqz	a0,110c <draw_gameover_screen+0xd0>
    10fc:	8d862783          	lw	a5,-1832(a2)
    1100:	00e787b3          	add	a5,a5,a4
    1104:	feb78e23          	sb	a1,-4(a5)
    1108:	0006c783          	lbu	a5,0(a3)
    110c:	0087f513          	andi	a0,a5,8
    1110:	00050a63          	beqz	a0,1124 <draw_gameover_screen+0xe8>
    1114:	8d862783          	lw	a5,-1832(a2)
    1118:	00e787b3          	add	a5,a5,a4
    111c:	feb78ea3          	sb	a1,-3(a5)
    1120:	0006c783          	lbu	a5,0(a3)
    1124:	0047f513          	andi	a0,a5,4
    1128:	00050a63          	beqz	a0,113c <draw_gameover_screen+0x100>
    112c:	8d862783          	lw	a5,-1832(a2)
    1130:	00e787b3          	add	a5,a5,a4
    1134:	feb78f23          	sb	a1,-2(a5)
    1138:	0006c783          	lbu	a5,0(a3)
    113c:	0027f513          	andi	a0,a5,2
    1140:	00050a63          	beqz	a0,1154 <draw_gameover_screen+0x118>
    1144:	8d862783          	lw	a5,-1832(a2)
    1148:	00e787b3          	add	a5,a5,a4
    114c:	feb78fa3          	sb	a1,-1(a5)
    1150:	0006c783          	lbu	a5,0(a3)
    1154:	0017f793          	andi	a5,a5,1
    1158:	00078863          	beqz	a5,1168 <draw_gameover_screen+0x12c>
    115c:	8d862783          	lw	a5,-1832(a2)
    1160:	00e787b3          	add	a5,a5,a4
    1164:	00b78023          	sb	a1,0(a5)
    1168:	14070713          	addi	a4,a4,320
    116c:	f8e810e3          	bne	a6,a4,10ec <draw_gameover_screen+0xb0>
    1170:	00680813          	addi	a6,a6,6
    1174:	00188893          	addi	a7,a7,1
    1178:	0008c783          	lbu	a5,0(a7)
    117c:	f2681ae3          	bne	a6,t1,10b0 <draw_gameover_screen+0x74>
    1180:	00004937          	lui	s2,0x4
    1184:	e3890913          	addi	s2,s2,-456 # 3e38 <CSWTCH.28+0x188>
    1188:	05300613          	li	a2,83
    118c:	08e00493          	li	s1,142
    1190:	0b200993          	li	s3,178
    1194:	00048513          	mv	a0,s1
    1198:	06e00593          	li	a1,110
    119c:	cccff0ef          	jal	668 <draw_char.constprop.1>
    11a0:	00648493          	addi	s1,s1,6
    11a4:	00190913          	addi	s2,s2,1
    11a8:	00094603          	lbu	a2,0(s2)
    11ac:	ff3494e3          	bne	s1,s3,1194 <draw_gameover_screen+0x158>
    11b0:	30040463          	beqz	s0,14b8 <draw_gameover_screen+0x47c>
    11b4:	32805463          	blez	s0,14dc <draw_gameover_screen+0x4a0>
    11b8:	666667b7          	lui	a5,0x66666
    11bc:	66778793          	addi	a5,a5,1639 # 66666667 <_stack_end+0x66562697>
    11c0:	02f417b3          	mulh	a5,s0,a5
    11c4:	41f45713          	srai	a4,s0,0x1f
    11c8:	00900693          	li	a3,9
    11cc:	4027d793          	srai	a5,a5,0x2
    11d0:	40e787b3          	sub	a5,a5,a4
    11d4:	00279713          	slli	a4,a5,0x2
    11d8:	00f70733          	add	a4,a4,a5
    11dc:	00171713          	slli	a4,a4,0x1
    11e0:	40e40733          	sub	a4,s0,a4
    11e4:	03070713          	addi	a4,a4,48
    11e8:	00e10223          	sb	a4,4(sp)
    11ec:	2e86de63          	bge	a3,s0,14e8 <draw_gameover_screen+0x4ac>
    11f0:	ccccd637          	lui	a2,0xccccd
    11f4:	ccd60613          	addi	a2,a2,-819 # cccccccd <_stack_end+0xccbc8cfd>
    11f8:	02c7b6b3          	mulhu	a3,a5,a2
    11fc:	06300513          	li	a0,99
    1200:	0036d693          	srli	a3,a3,0x3
    1204:	00269593          	slli	a1,a3,0x2
    1208:	00d585b3          	add	a1,a1,a3
    120c:	00159593          	slli	a1,a1,0x1
    1210:	40b787b3          	sub	a5,a5,a1
    1214:	03078793          	addi	a5,a5,48
    1218:	00f102a3          	sb	a5,5(sp)
    121c:	2a855663          	bge	a0,s0,14c8 <draw_gameover_screen+0x48c>
    1220:	02c6b5b3          	mulhu	a1,a3,a2
    1224:	3e700513          	li	a0,999
    1228:	0035d593          	srli	a1,a1,0x3
    122c:	00259793          	slli	a5,a1,0x2
    1230:	00b787b3          	add	a5,a5,a1
    1234:	00179793          	slli	a5,a5,0x1
    1238:	40f687b3          	sub	a5,a3,a5
    123c:	03078793          	addi	a5,a5,48
    1240:	00f10323          	sb	a5,6(sp)
    1244:	2a855863          	bge	a0,s0,14f4 <draw_gameover_screen+0x4b8>
    1248:	02c5b6b3          	mulhu	a3,a1,a2
    124c:	00002537          	lui	a0,0x2
    1250:	70f50513          	addi	a0,a0,1807 # 270f <gameState+0x1ef>
    1254:	0036d693          	srli	a3,a3,0x3
    1258:	00269793          	slli	a5,a3,0x2
    125c:	00d787b3          	add	a5,a5,a3
    1260:	00179793          	slli	a5,a5,0x1
    1264:	40f587b3          	sub	a5,a1,a5
    1268:	03078793          	addi	a5,a5,48
    126c:	00f103a3          	sb	a5,7(sp)
    1270:	2a855463          	bge	a0,s0,1518 <draw_gameover_screen+0x4dc>
    1274:	02c6b5b3          	mulhu	a1,a3,a2
    1278:	00018537          	lui	a0,0x18
    127c:	69f50513          	addi	a0,a0,1695 # 1869f <__global_pointer+0x145ca>
    1280:	0035d593          	srli	a1,a1,0x3
    1284:	00259793          	slli	a5,a1,0x2
    1288:	00b787b3          	add	a5,a5,a1
    128c:	00179793          	slli	a5,a5,0x1
    1290:	40f687b3          	sub	a5,a3,a5
    1294:	03078793          	addi	a5,a5,48
    1298:	00f10423          	sb	a5,8(sp)
    129c:	2a855e63          	bge	a0,s0,1558 <draw_gameover_screen+0x51c>
    12a0:	02c5b7b3          	mulhu	a5,a1,a2
    12a4:	000f4537          	lui	a0,0xf4
    12a8:	23f50513          	addi	a0,a0,575 # f423f <__global_pointer+0xf016a>
    12ac:	0037d793          	srli	a5,a5,0x3
    12b0:	00279693          	slli	a3,a5,0x2
    12b4:	00f686b3          	add	a3,a3,a5
    12b8:	00169693          	slli	a3,a3,0x1
    12bc:	40d586b3          	sub	a3,a1,a3
    12c0:	03068693          	addi	a3,a3,48
    12c4:	00d104a3          	sb	a3,9(sp)
    12c8:	26855863          	bge	a0,s0,1538 <draw_gameover_screen+0x4fc>
    12cc:	02c7b6b3          	mulhu	a3,a5,a2
    12d0:	009895b7          	lui	a1,0x989
    12d4:	67f58593          	addi	a1,a1,1663 # 98967f <_stack_end+0x8856af>
    12d8:	0036d693          	srli	a3,a3,0x3
    12dc:	00269613          	slli	a2,a3,0x2
    12e0:	00d606b3          	add	a3,a2,a3
    12e4:	00169693          	slli	a3,a3,0x1
    12e8:	40d786b3          	sub	a3,a5,a3
    12ec:	03068693          	addi	a3,a3,48
    12f0:	00d10523          	sb	a3,10(sp)
    12f4:	2c85d263          	bge	a1,s0,15b8 <draw_gameover_screen+0x57c>
    12f8:	ccccd6b7          	lui	a3,0xccccd
    12fc:	ccd68693          	addi	a3,a3,-819 # cccccccd <_stack_end+0xccbc8cfd>
    1300:	02d7b7b3          	mulhu	a5,a5,a3
    1304:	05f5e537          	lui	a0,0x5f5e
    1308:	0ff50513          	addi	a0,a0,255 # 5f5e0ff <_stack_end+0x5e5a12f>
    130c:	0037d793          	srli	a5,a5,0x3
    1310:	02d7b633          	mulhu	a2,a5,a3
    1314:	00365613          	srli	a2,a2,0x3
    1318:	00261593          	slli	a1,a2,0x2
    131c:	00c585b3          	add	a1,a1,a2
    1320:	00159593          	slli	a1,a1,0x1
    1324:	40b787b3          	sub	a5,a5,a1
    1328:	03078793          	addi	a5,a5,48
    132c:	00f105a3          	sb	a5,11(sp)
    1330:	26855463          	bge	a0,s0,1598 <draw_gameover_screen+0x55c>
    1334:	02d637b3          	mulhu	a5,a2,a3
    1338:	3b9ad5b7          	lui	a1,0x3b9ad
    133c:	9ff58593          	addi	a1,a1,-1537 # 3b9ac9ff <_stack_end+0x3b8a8a2f>
    1340:	0037d793          	srli	a5,a5,0x3
    1344:	00279693          	slli	a3,a5,0x2
    1348:	00f686b3          	add	a3,a3,a5
    134c:	00169693          	slli	a3,a3,0x1
    1350:	40d606b3          	sub	a3,a2,a3
    1354:	03068693          	addi	a3,a3,48
    1358:	00d10623          	sb	a3,12(sp)
    135c:	2285d263          	bge	a1,s0,1580 <draw_gameover_screen+0x544>
    1360:	00d108a3          	sb	a3,17(sp)
    1364:	00b14683          	lbu	a3,11(sp)
    1368:	03078793          	addi	a5,a5,48
    136c:	00f10823          	sb	a5,16(sp)
    1370:	00a00793          	li	a5,10
    1374:	00278633          	add	a2,a5,sp
    1378:	00064603          	lbu	a2,0(a2)
    137c:	00d10923          	sb	a3,18(sp)
    1380:	ffc78693          	addi	a3,a5,-4
    1384:	00c109a3          	sb	a2,19(sp)
    1388:	18068463          	beqz	a3,1510 <draw_gameover_screen+0x4d4>
    138c:	00278633          	add	a2,a5,sp
    1390:	fff64603          	lbu	a2,-1(a2)
    1394:	ffb78693          	addi	a3,a5,-5
    1398:	00c10a23          	sb	a2,20(sp)
    139c:	1a068a63          	beqz	a3,1550 <draw_gameover_screen+0x514>
    13a0:	00278633          	add	a2,a5,sp
    13a4:	ffe64603          	lbu	a2,-2(a2)
    13a8:	ffa78693          	addi	a3,a5,-6
    13ac:	00c10aa3          	sb	a2,21(sp)
    13b0:	18068063          	beqz	a3,1530 <draw_gameover_screen+0x4f4>
    13b4:	00278633          	add	a2,a5,sp
    13b8:	ffd64603          	lbu	a2,-3(a2)
    13bc:	ff978693          	addi	a3,a5,-7
    13c0:	00c10b23          	sb	a2,22(sp)
    13c4:	1a068a63          	beqz	a3,1578 <draw_gameover_screen+0x53c>
    13c8:	00278633          	add	a2,a5,sp
    13cc:	ffc64603          	lbu	a2,-4(a2)
    13d0:	ff878693          	addi	a3,a5,-8
    13d4:	00c10ba3          	sb	a2,23(sp)
    13d8:	1c068c63          	beqz	a3,15b0 <draw_gameover_screen+0x574>
    13dc:	00078693          	mv	a3,a5
    13e0:	002686b3          	add	a3,a3,sp
    13e4:	ffb6c683          	lbu	a3,-5(a3)
    13e8:	ff778793          	addi	a5,a5,-9
    13ec:	00d10c23          	sb	a3,24(sp)
    13f0:	18078063          	beqz	a5,1570 <draw_gameover_screen+0x534>
    13f4:	00e10ca3          	sb	a4,25(sp)
    13f8:	00a00793          	li	a5,10
    13fc:	01010413          	addi	s0,sp,16
    1400:	00f407b3          	add	a5,s0,a5
    1404:	00078023          	sb	zero,0(a5)
    1408:	01014603          	lbu	a2,16(sp)
    140c:	04060a63          	beqz	a2,1460 <draw_gameover_screen+0x424>
    1410:	00040793          	mv	a5,s0
    1414:	00078693          	mv	a3,a5
    1418:	0017c703          	lbu	a4,1(a5)
    141c:	00178793          	addi	a5,a5,1
    1420:	fe071ae3          	bnez	a4,1414 <draw_gameover_screen+0x3d8>
    1424:	408687b3          	sub	a5,a3,s0
    1428:	00178793          	addi	a5,a5,1
    142c:	00179713          	slli	a4,a5,0x1
    1430:	00f707b3          	add	a5,a4,a5
    1434:	00179793          	slli	a5,a5,0x1
    1438:	14000493          	li	s1,320
    143c:	40f484b3          	sub	s1,s1,a5
    1440:	4014d493          	srai	s1,s1,0x1
    1444:	00048513          	mv	a0,s1
    1448:	08200593          	li	a1,130
    144c:	a1cff0ef          	jal	668 <draw_char.constprop.1>
    1450:	00144603          	lbu	a2,1(s0)
    1454:	00140413          	addi	s0,s0,1
    1458:	00648493          	addi	s1,s1,6
    145c:	fe0614e3          	bnez	a2,1444 <draw_gameover_screen+0x408>
    1460:	000044b7          	lui	s1,0x4
    1464:	e4048493          	addi	s1,s1,-448 # 3e40 <CSWTCH.28+0x190>
    1468:	06700413          	li	s0,103
    146c:	04200613          	li	a2,66
    1470:	0d900913          	li	s2,217
    1474:	00040513          	mv	a0,s0
    1478:	0aa00593          	li	a1,170
    147c:	fe5fe0ef          	jal	460 <draw_char.constprop.0>
    1480:	00640413          	addi	s0,s0,6
    1484:	00148493          	addi	s1,s1,1
    1488:	0004c603          	lbu	a2,0(s1)
    148c:	ff2414e3          	bne	s0,s2,1474 <draw_gameover_screen+0x438>
    1490:	03c12083          	lw	ra,60(sp)
    1494:	03812403          	lw	s0,56(sp)
    1498:	03412483          	lw	s1,52(sp)
    149c:	03012903          	lw	s2,48(sp)
    14a0:	02c12983          	lw	s3,44(sp)
    14a4:	04010113          	addi	sp,sp,64
    14a8:	00008067          	ret
    14ac:	00000793          	li	a5,0
    14b0:	facf8693          	addi	a3,t6,-84 # 3fac <GLYPH_SPACE.26>
    14b4:	c2dff06f          	j	10e0 <draw_gameover_screen+0xa4>
    14b8:	03000613          	li	a2,48
    14bc:	00c11823          	sh	a2,16(sp)
    14c0:	01010413          	addi	s0,sp,16
    14c4:	f4dff06f          	j	1410 <draw_gameover_screen+0x3d4>
    14c8:	00414703          	lbu	a4,4(sp)
    14cc:	00f10823          	sb	a5,16(sp)
    14d0:	00200793          	li	a5,2
    14d4:	00e108a3          	sb	a4,17(sp)
    14d8:	f25ff06f          	j	13fc <draw_gameover_screen+0x3c0>
    14dc:	01010413          	addi	s0,sp,16
    14e0:	00040793          	mv	a5,s0
    14e4:	f21ff06f          	j	1404 <draw_gameover_screen+0x3c8>
    14e8:	00e10823          	sb	a4,16(sp)
    14ec:	00100793          	li	a5,1
    14f0:	f0dff06f          	j	13fc <draw_gameover_screen+0x3c0>
    14f4:	00514683          	lbu	a3,5(sp)
    14f8:	00414703          	lbu	a4,4(sp)
    14fc:	00f10823          	sb	a5,16(sp)
    1500:	00d108a3          	sb	a3,17(sp)
    1504:	00e10923          	sb	a4,18(sp)
    1508:	00300793          	li	a5,3
    150c:	ef1ff06f          	j	13fc <draw_gameover_screen+0x3c0>
    1510:	00400793          	li	a5,4
    1514:	ee9ff06f          	j	13fc <draw_gameover_screen+0x3c0>
    1518:	00614603          	lbu	a2,6(sp)
    151c:	00f10823          	sb	a5,16(sp)
    1520:	00514683          	lbu	a3,5(sp)
    1524:	00400793          	li	a5,4
    1528:	00c108a3          	sb	a2,17(sp)
    152c:	e49ff06f          	j	1374 <draw_gameover_screen+0x338>
    1530:	00600793          	li	a5,6
    1534:	ec9ff06f          	j	13fc <draw_gameover_screen+0x3c0>
    1538:	00814603          	lbu	a2,8(sp)
    153c:	00d10823          	sb	a3,16(sp)
    1540:	00600793          	li	a5,6
    1544:	00714683          	lbu	a3,7(sp)
    1548:	00c108a3          	sb	a2,17(sp)
    154c:	e29ff06f          	j	1374 <draw_gameover_screen+0x338>
    1550:	00500793          	li	a5,5
    1554:	ea9ff06f          	j	13fc <draw_gameover_screen+0x3c0>
    1558:	00714603          	lbu	a2,7(sp)
    155c:	00f10823          	sb	a5,16(sp)
    1560:	00614683          	lbu	a3,6(sp)
    1564:	00500793          	li	a5,5
    1568:	00c108a3          	sb	a2,17(sp)
    156c:	e09ff06f          	j	1374 <draw_gameover_screen+0x338>
    1570:	00900793          	li	a5,9
    1574:	e89ff06f          	j	13fc <draw_gameover_screen+0x3c0>
    1578:	00700793          	li	a5,7
    157c:	e81ff06f          	j	13fc <draw_gameover_screen+0x3c0>
    1580:	00b14603          	lbu	a2,11(sp)
    1584:	00d10823          	sb	a3,16(sp)
    1588:	00900793          	li	a5,9
    158c:	00a14683          	lbu	a3,10(sp)
    1590:	00c108a3          	sb	a2,17(sp)
    1594:	de1ff06f          	j	1374 <draw_gameover_screen+0x338>
    1598:	00a14603          	lbu	a2,10(sp)
    159c:	00f10823          	sb	a5,16(sp)
    15a0:	00914683          	lbu	a3,9(sp)
    15a4:	00800793          	li	a5,8
    15a8:	00c108a3          	sb	a2,17(sp)
    15ac:	dc9ff06f          	j	1374 <draw_gameover_screen+0x338>
    15b0:	00800793          	li	a5,8
    15b4:	e49ff06f          	j	13fc <draw_gameover_screen+0x3c0>
    15b8:	00914603          	lbu	a2,9(sp)
    15bc:	00d10823          	sb	a3,16(sp)
    15c0:	00700793          	li	a5,7
    15c4:	00814683          	lbu	a3,8(sp)
    15c8:	00c108a3          	sb	a2,17(sp)
    15cc:	da9ff06f          	j	1374 <draw_gameover_screen+0x338>

000015d0 <vga_show_frame>:
    15d0:	000047b7          	lui	a5,0x4
    15d4:	00004737          	lui	a4,0x4
    15d8:	8dc7a603          	lw	a2,-1828(a5) # 38dc <vga_ctrl>
    15dc:	8d872683          	lw	a3,-1832(a4) # 38d8 <draw_frame>
    15e0:	000047b7          	lui	a5,0x4
    15e4:	8e47a783          	lw	a5,-1820(a5) # 38e4 <frame0>
    15e8:	00d62223          	sw	a3,4(a2)
    15ec:	00062023          	sw	zero,0(a2)
    15f0:	00f68663          	beq	a3,a5,15fc <vga_show_frame+0x2c>
    15f4:	8cf72c23          	sw	a5,-1832(a4)
    15f8:	00008067          	ret
    15fc:	000047b7          	lui	a5,0x4
    1600:	8e07a783          	lw	a5,-1824(a5) # 38e0 <frame1>
    1604:	8cf72c23          	sw	a5,-1832(a4)
    1608:	00008067          	ret

0000160c <vga_draw_startscreen>:
    160c:	ff010113          	addi	sp,sp,-16
    1610:	000136b7          	lui	a3,0x13
    1614:	00812423          	sw	s0,8(sp)
    1618:	00112623          	sw	ra,12(sp)
    161c:	c0068693          	addi	a3,a3,-1024 # 12c00 <__global_pointer+0xeb2b>
    1620:	00000793          	li	a5,0
    1624:	00004437          	lui	s0,0x4
    1628:	8d842703          	lw	a4,-1832(s0) # 38d8 <draw_frame>
    162c:	00f70733          	add	a4,a4,a5
    1630:	00070023          	sb	zero,0(a4)
    1634:	00178793          	addi	a5,a5,1
    1638:	fed798e3          	bne	a5,a3,1628 <vga_draw_startscreen+0x1c>
    163c:	94dff0ef          	jal	f88 <draw_startscreen>
    1640:	000047b7          	lui	a5,0x4
    1644:	8dc7a683          	lw	a3,-1828(a5) # 38dc <vga_ctrl>
    1648:	8d842703          	lw	a4,-1832(s0)
    164c:	000047b7          	lui	a5,0x4
    1650:	8e47a783          	lw	a5,-1820(a5) # 38e4 <frame0>
    1654:	00e6a223          	sw	a4,4(a3)
    1658:	0006a023          	sw	zero,0(a3)
    165c:	00f70c63          	beq	a4,a5,1674 <vga_draw_startscreen+0x68>
    1660:	00c12083          	lw	ra,12(sp)
    1664:	8cf42c23          	sw	a5,-1832(s0)
    1668:	00812403          	lw	s0,8(sp)
    166c:	01010113          	addi	sp,sp,16
    1670:	00008067          	ret
    1674:	000047b7          	lui	a5,0x4
    1678:	8e07a783          	lw	a5,-1824(a5) # 38e0 <frame1>
    167c:	00c12083          	lw	ra,12(sp)
    1680:	8cf42c23          	sw	a5,-1832(s0)
    1684:	00812403          	lw	s0,8(sp)
    1688:	01010113          	addi	sp,sp,16
    168c:	00008067          	ret

00001690 <vga_draw_gameover>:
    1690:	ff010113          	addi	sp,sp,-16
    1694:	00112623          	sw	ra,12(sp)
    1698:	9a5ff0ef          	jal	103c <draw_gameover_screen>
    169c:	000047b7          	lui	a5,0x4
    16a0:	00004737          	lui	a4,0x4
    16a4:	8dc7a603          	lw	a2,-1828(a5) # 38dc <vga_ctrl>
    16a8:	8d872683          	lw	a3,-1832(a4) # 38d8 <draw_frame>
    16ac:	000047b7          	lui	a5,0x4
    16b0:	8e47a783          	lw	a5,-1820(a5) # 38e4 <frame0>
    16b4:	00d62223          	sw	a3,4(a2)
    16b8:	00062023          	sw	zero,0(a2)
    16bc:	00f68a63          	beq	a3,a5,16d0 <vga_draw_gameover+0x40>
    16c0:	00c12083          	lw	ra,12(sp)
    16c4:	8cf72c23          	sw	a5,-1832(a4)
    16c8:	01010113          	addi	sp,sp,16
    16cc:	00008067          	ret
    16d0:	000047b7          	lui	a5,0x4
    16d4:	8e07a783          	lw	a5,-1824(a5) # 38e0 <frame1>
    16d8:	00c12083          	lw	ra,12(sp)
    16dc:	8cf72c23          	sw	a5,-1832(a4)
    16e0:	01010113          	addi	sp,sp,16
    16e4:	00008067          	ret

000016e8 <vga_draw_game>:
    16e8:	fc010113          	addi	sp,sp,-64
    16ec:	000136b7          	lui	a3,0x13
    16f0:	02812c23          	sw	s0,56(sp)
    16f4:	02112e23          	sw	ra,60(sp)
    16f8:	02912a23          	sw	s1,52(sp)
    16fc:	03212823          	sw	s2,48(sp)
    1700:	03312623          	sw	s3,44(sp)
    1704:	03412423          	sw	s4,40(sp)
    1708:	03512223          	sw	s5,36(sp)
    170c:	03612023          	sw	s6,32(sp)
    1710:	01712e23          	sw	s7,28(sp)
    1714:	01812c23          	sw	s8,24(sp)
    1718:	c0068693          	addi	a3,a3,-1024 # 12c00 <__global_pointer+0xeb2b>
    171c:	00000793          	li	a5,0
    1720:	00004437          	lui	s0,0x4
    1724:	8d842703          	lw	a4,-1832(s0) # 38d8 <draw_frame>
    1728:	00f70733          	add	a4,a4,a5
    172c:	00070023          	sb	zero,0(a4)
    1730:	00178793          	addi	a5,a5,1
    1734:	fed798e3          	bne	a5,a3,1724 <vga_draw_game+0x3c>
    1738:	000136b7          	lui	a3,0x13
    173c:	00013537          	lui	a0,0x13
    1740:	c6468693          	addi	a3,a3,-924 # 12c64 <__global_pointer+0xeb8f>
    1744:	ce850513          	addi	a0,a0,-792 # 12ce8 <__global_pointer+0xec13>
    1748:	06400593          	li	a1,100
    174c:	fb600613          	li	a2,-74
    1750:	00058793          	mv	a5,a1
    1754:	8d842703          	lw	a4,-1832(s0)
    1758:	00f70733          	add	a4,a4,a5
    175c:	00c70023          	sb	a2,0(a4)
    1760:	14078793          	addi	a5,a5,320
    1764:	fed798e3          	bne	a5,a3,1754 <vga_draw_game+0x6c>
    1768:	00c78693          	addi	a3,a5,12
    176c:	00c58593          	addi	a1,a1,12
    1770:	fea690e3          	bne	a3,a0,1750 <vga_draw_game+0x68>
    1774:	fff00593          	li	a1,-1
    1778:	00014537          	lui	a0,0x14
    177c:	00058813          	mv	a6,a1
    1780:	a9c50513          	addi	a0,a0,-1380 # 13a9c <__global_pointer+0xf9c7>
    1784:	f9c00693          	li	a3,-100
    1788:	fb600613          	li	a2,-74
    178c:	01058e63          	beq	a1,a6,17a8 <vga_draw_game+0xc0>
    1790:	f8868793          	addi	a5,a3,-120
    1794:	8d842703          	lw	a4,-1832(s0)
    1798:	00f70733          	add	a4,a4,a5
    179c:	00c70023          	sb	a2,0(a4)
    17a0:	00178793          	addi	a5,a5,1
    17a4:	fed798e3          	bne	a5,a3,1794 <vga_draw_game+0xac>
    17a8:	7ff68693          	addi	a3,a3,2047
    17ac:	70168693          	addi	a3,a3,1793
    17b0:	00c58593          	addi	a1,a1,12
    17b4:	fca69ce3          	bne	a3,a0,178c <vga_draw_game+0xa4>
    17b8:	000136b7          	lui	a3,0x13
    17bc:	c0068693          	addi	a3,a3,-1024 # 12c00 <__global_pointer+0xeb2b>
    17c0:	00000593          	li	a1,0
    17c4:	07200613          	li	a2,114
    17c8:	06400513          	li	a0,100
    17cc:	00058793          	mv	a5,a1
    17d0:	8d842703          	lw	a4,-1832(s0)
    17d4:	00f70733          	add	a4,a4,a5
    17d8:	00c70023          	sb	a2,0(a4)
    17dc:	14078793          	addi	a5,a5,320
    17e0:	fed798e3          	bne	a5,a3,17d0 <vga_draw_game+0xe8>
    17e4:	00158593          	addi	a1,a1,1
    17e8:	00178693          	addi	a3,a5,1
    17ec:	fea590e3          	bne	a1,a0,17cc <vga_draw_game+0xe4>
    17f0:	000136b7          	lui	a3,0x13
    17f4:	cdd68693          	addi	a3,a3,-803 # 12cdd <__global_pointer+0xec08>
    17f8:	0dd00593          	li	a1,221
    17fc:	07200613          	li	a2,114
    1800:	14000513          	li	a0,320
    1804:	00058793          	mv	a5,a1
    1808:	8d842703          	lw	a4,-1832(s0)
    180c:	00f70733          	add	a4,a4,a5
    1810:	00c70023          	sb	a2,0(a4)
    1814:	14078793          	addi	a5,a5,320
    1818:	fed798e3          	bne	a5,a3,1808 <vga_draw_game+0x120>
    181c:	00158593          	addi	a1,a1,1
    1820:	00178693          	addi	a3,a5,1
    1824:	fea590e3          	bne	a1,a0,1804 <vga_draw_game+0x11c>
    1828:	00004b37          	lui	s6,0x4
    182c:	920b0b13          	addi	s6,s6,-1760 # 3920 <playingGrid>
    1830:	00004ab7          	lui	s5,0x4
    1834:	320b0c13          	addi	s8,s6,800
    1838:	c70a8a93          	addi	s5,s5,-912 # 3c70 <scores+0x4>
    183c:	00000a13          	li	s4,0
    1840:	00700b93          	li	s7,7
    1844:	01400993          	li	s3,20
    1848:	000b0913          	mv	s2,s6
    184c:	00000493          	li	s1,0
    1850:	0100006f          	j	1860 <vga_draw_game+0x178>
    1854:	00148493          	addi	s1,s1,1
    1858:	00490913          	addi	s2,s2,4
    185c:	05348663          	beq	s1,s3,18a8 <vga_draw_game+0x1c0>
    1860:	00092783          	lw	a5,0(s2)
    1864:	fe0788e3          	beqz	a5,1854 <vga_draw_game+0x16c>
    1868:	0cfbe263          	bltu	s7,a5,192c <vga_draw_game+0x244>
    186c:	00279793          	slli	a5,a5,0x2
    1870:	015787b3          	add	a5,a5,s5
    1874:	0007a783          	lw	a5,0(a5)
    1878:	00078067          	jr	a5
    187c:	0b400793          	li	a5,180
    1880:	0fc00713          	li	a4,252
    1884:	00e10623          	sb	a4,12(sp)
    1888:	00f106a3          	sb	a5,13(sp)
    188c:	00c12603          	lw	a2,12(sp)
    1890:	00048593          	mv	a1,s1
    1894:	000a0513          	mv	a0,s4
    1898:	00148493          	addi	s1,s1,1
    189c:	830ff0ef          	jal	8cc <fill_square>
    18a0:	00490913          	addi	s2,s2,4
    18a4:	fb349ee3          	bne	s1,s3,1860 <vga_draw_game+0x178>
    18a8:	050b0b13          	addi	s6,s6,80
    18ac:	001a0a13          	addi	s4,s4,1
    18b0:	f96c1ce3          	bne	s8,s6,1848 <vga_draw_game+0x160>
    18b4:	000044b7          	lui	s1,0x4
    18b8:	8fc48493          	addi	s1,s1,-1796 # 38fc <currentshape>
    18bc:	0004a783          	lw	a5,0(s1)
    18c0:	0cf05263          	blez	a5,1984 <vga_draw_game+0x29c>
    18c4:	00700713          	li	a4,7
    18c8:	06f76863          	bltu	a4,a5,1938 <vga_draw_game+0x250>
    18cc:	00004737          	lui	a4,0x4
    18d0:	00279793          	slli	a5,a5,0x2
    18d4:	c9070713          	addi	a4,a4,-880 # 3c90 <scores+0x24>
    18d8:	00e787b3          	add	a5,a5,a4
    18dc:	0007a783          	lw	a5,0(a5)
    18e0:	00078067          	jr	a5
    18e4:	01200793          	li	a5,18
    18e8:	01b00713          	li	a4,27
    18ec:	f99ff06f          	j	1884 <vga_draw_game+0x19c>
    18f0:	06000793          	li	a5,96
    18f4:	0c000713          	li	a4,192
    18f8:	f8dff06f          	j	1884 <vga_draw_game+0x19c>
    18fc:	00c00793          	li	a5,12
    1900:	01400713          	li	a4,20
    1904:	f81ff06f          	j	1884 <vga_draw_game+0x19c>
    1908:	06200793          	li	a5,98
    190c:	0a300713          	li	a4,163
    1910:	f75ff06f          	j	1884 <vga_draw_game+0x19c>
    1914:	00100793          	li	a5,1
    1918:	00200713          	li	a4,2
    191c:	f69ff06f          	j	1884 <vga_draw_game+0x19c>
    1920:	0cc00793          	li	a5,204
    1924:	0f000713          	li	a4,240
    1928:	f5dff06f          	j	1884 <vga_draw_game+0x19c>
    192c:	00000793          	li	a5,0
    1930:	00000713          	li	a4,0
    1934:	f51ff06f          	j	1884 <vga_draw_game+0x19c>
    1938:	00000793          	li	a5,0
    193c:	00000713          	li	a4,0
    1940:	0144a583          	lw	a1,20(s1)
    1944:	00f106a3          	sb	a5,13(sp)
    1948:	00e10623          	sb	a4,12(sp)
    194c:	01300793          	li	a5,19
    1950:	0cb7f063          	bgeu	a5,a1,1a10 <vga_draw_game+0x328>
    1954:	0184a583          	lw	a1,24(s1)
    1958:	01300793          	li	a5,19
    195c:	0ab7f263          	bgeu	a5,a1,1a00 <vga_draw_game+0x318>
    1960:	01c4a583          	lw	a1,28(s1)
    1964:	01300793          	li	a5,19
    1968:	08b7f463          	bgeu	a5,a1,19f0 <vga_draw_game+0x308>
    196c:	0204a583          	lw	a1,32(s1)
    1970:	01300793          	li	a5,19
    1974:	00b7e863          	bltu	a5,a1,1984 <vga_draw_game+0x29c>
    1978:	0104a503          	lw	a0,16(s1)
    197c:	00c12603          	lw	a2,12(sp)
    1980:	f4dfe0ef          	jal	8cc <fill_square>
    1984:	000047b7          	lui	a5,0x4
    1988:	8dc7a683          	lw	a3,-1828(a5) # 38dc <vga_ctrl>
    198c:	8d842703          	lw	a4,-1832(s0)
    1990:	000047b7          	lui	a5,0x4
    1994:	8e47a783          	lw	a5,-1820(a5) # 38e4 <frame0>
    1998:	00e6a223          	sw	a4,4(a3)
    199c:	0006a023          	sw	zero,0(a3)
    19a0:	02f70c63          	beq	a4,a5,19d8 <vga_draw_game+0x2f0>
    19a4:	03c12083          	lw	ra,60(sp)
    19a8:	8cf42c23          	sw	a5,-1832(s0)
    19ac:	03812403          	lw	s0,56(sp)
    19b0:	03412483          	lw	s1,52(sp)
    19b4:	03012903          	lw	s2,48(sp)
    19b8:	02c12983          	lw	s3,44(sp)
    19bc:	02812a03          	lw	s4,40(sp)
    19c0:	02412a83          	lw	s5,36(sp)
    19c4:	02012b03          	lw	s6,32(sp)
    19c8:	01c12b83          	lw	s7,28(sp)
    19cc:	01812c03          	lw	s8,24(sp)
    19d0:	04010113          	addi	sp,sp,64
    19d4:	00008067          	ret
    19d8:	000047b7          	lui	a5,0x4
    19dc:	8e07a783          	lw	a5,-1824(a5) # 38e0 <frame1>
    19e0:	fc5ff06f          	j	19a4 <vga_draw_game+0x2bc>
    19e4:	01200793          	li	a5,18
    19e8:	01b00713          	li	a4,27
    19ec:	f55ff06f          	j	1940 <vga_draw_game+0x258>
    19f0:	00c12603          	lw	a2,12(sp)
    19f4:	00c4a503          	lw	a0,12(s1)
    19f8:	ed5fe0ef          	jal	8cc <fill_square>
    19fc:	f71ff06f          	j	196c <vga_draw_game+0x284>
    1a00:	00c12603          	lw	a2,12(sp)
    1a04:	0084a503          	lw	a0,8(s1)
    1a08:	ec5fe0ef          	jal	8cc <fill_square>
    1a0c:	f55ff06f          	j	1960 <vga_draw_game+0x278>
    1a10:	00c12603          	lw	a2,12(sp)
    1a14:	0044a503          	lw	a0,4(s1)
    1a18:	eb5fe0ef          	jal	8cc <fill_square>
    1a1c:	f39ff06f          	j	1954 <vga_draw_game+0x26c>
    1a20:	0b400793          	li	a5,180
    1a24:	0fc00713          	li	a4,252
    1a28:	f19ff06f          	j	1940 <vga_draw_game+0x258>
    1a2c:	0cc00793          	li	a5,204
    1a30:	0f000713          	li	a4,240
    1a34:	f0dff06f          	j	1940 <vga_draw_game+0x258>
    1a38:	00100793          	li	a5,1
    1a3c:	00200713          	li	a4,2
    1a40:	f01ff06f          	j	1940 <vga_draw_game+0x258>
    1a44:	06200793          	li	a5,98
    1a48:	0a300713          	li	a4,163
    1a4c:	ef5ff06f          	j	1940 <vga_draw_game+0x258>
    1a50:	00c00793          	li	a5,12
    1a54:	01400713          	li	a4,20
    1a58:	ee9ff06f          	j	1940 <vga_draw_game+0x258>
    1a5c:	06000793          	li	a5,96
    1a60:	0c000713          	li	a4,192
    1a64:	eddff06f          	j	1940 <vga_draw_game+0x258>

00001a68 <printc>:
    1a68:	04000737          	lui	a4,0x4000
    1a6c:	04470713          	addi	a4,a4,68 # 4000044 <_stack_end+0x3efc074>
    1a70:	000106b7          	lui	a3,0x10
    1a74:	00072783          	lw	a5,0(a4)
    1a78:	fed7eee3          	bltu	a5,a3,1a74 <printc+0xc>
    1a7c:	040007b7          	lui	a5,0x4000
    1a80:	04a7a023          	sw	a0,64(a5) # 4000040 <_stack_end+0x3efc070>
    1a84:	00008067          	ret

00001a88 <print>:
    1a88:	00054603          	lbu	a2,0(a0)
    1a8c:	02060863          	beqz	a2,1abc <print+0x34>
    1a90:	04000737          	lui	a4,0x4000
    1a94:	040005b7          	lui	a1,0x4000
    1a98:	04470713          	addi	a4,a4,68 # 4000044 <_stack_end+0x3efc074>
    1a9c:	04058593          	addi	a1,a1,64 # 4000040 <_stack_end+0x3efc070>
    1aa0:	000106b7          	lui	a3,0x10
    1aa4:	00072783          	lw	a5,0(a4)
    1aa8:	fed7eee3          	bltu	a5,a3,1aa4 <print+0x1c>
    1aac:	00c5a023          	sw	a2,0(a1)
    1ab0:	00154603          	lbu	a2,1(a0)
    1ab4:	00150513          	addi	a0,a0,1
    1ab8:	fe0616e3          	bnez	a2,1aa4 <print+0x1c>
    1abc:	00008067          	ret

00001ac0 <print_dec>:
    1ac0:	3b9ad737          	lui	a4,0x3b9ad
    1ac4:	040006b7          	lui	a3,0x4000
    1ac8:	04000337          	lui	t1,0x4000
    1acc:	ccccd8b7          	lui	a7,0xccccd
    1ad0:	a0070713          	addi	a4,a4,-1536 # 3b9aca00 <_stack_end+0x3b8a8a30>
    1ad4:	04468693          	addi	a3,a3,68 # 4000044 <_stack_end+0x3efc074>
    1ad8:	04030313          	addi	t1,t1,64 # 4000040 <_stack_end+0x3efc070>
    1adc:	ccd88893          	addi	a7,a7,-819 # cccccccd <_stack_end+0xccbc8cfd>
    1ae0:	00a00593          	li	a1,10
    1ae4:	00000793          	li	a5,0
    1ae8:	00010637          	lui	a2,0x10
    1aec:	04e57663          	bgeu	a0,a4,1b38 <print_dec+0x78>
    1af0:	00078813          	mv	a6,a5
    1af4:	00000793          	li	a5,0
    1af8:	04081063          	bnez	a6,1b38 <print_dec+0x78>
    1afc:	03173833          	mulhu	a6,a4,a7
    1b00:	fff58593          	addi	a1,a1,-1
    1b04:	02e57533          	remu	a0,a0,a4
    1b08:	00385713          	srli	a4,a6,0x3
    1b0c:	fe0590e3          	bnez	a1,1aec <print_dec+0x2c>
    1b10:	02079263          	bnez	a5,1b34 <print_dec+0x74>
    1b14:	04000737          	lui	a4,0x4000
    1b18:	04470713          	addi	a4,a4,68 # 4000044 <_stack_end+0x3efc074>
    1b1c:	000106b7          	lui	a3,0x10
    1b20:	00072783          	lw	a5,0(a4)
    1b24:	fed7eee3          	bltu	a5,a3,1b20 <print_dec+0x60>
    1b28:	040007b7          	lui	a5,0x4000
    1b2c:	03000713          	li	a4,48
    1b30:	04e7a023          	sw	a4,64(a5) # 4000040 <_stack_end+0x3efc070>
    1b34:	00008067          	ret
    1b38:	02e55833          	divu	a6,a0,a4
    1b3c:	03080813          	addi	a6,a6,48
    1b40:	0ff87813          	zext.b	a6,a6
    1b44:	0006a783          	lw	a5,0(a3) # 10000 <__global_pointer+0xbf2b>
    1b48:	fec7eee3          	bltu	a5,a2,1b44 <print_dec+0x84>
    1b4c:	01032023          	sw	a6,0(t1)
    1b50:	00100793          	li	a5,1
    1b54:	fa9ff06f          	j	1afc <print_dec+0x3c>

00001b58 <print_hex32>:
    1b58:	04000737          	lui	a4,0x4000
    1b5c:	04470713          	addi	a4,a4,68 # 4000044 <_stack_end+0x3efc074>
    1b60:	000106b7          	lui	a3,0x10
    1b64:	00072783          	lw	a5,0(a4)
    1b68:	fed7eee3          	bltu	a5,a3,1b64 <print_hex32+0xc>
    1b6c:	040007b7          	lui	a5,0x4000
    1b70:	03000693          	li	a3,48
    1b74:	04d7a023          	sw	a3,64(a5) # 4000040 <_stack_end+0x3efc070>
    1b78:	04478713          	addi	a4,a5,68
    1b7c:	000106b7          	lui	a3,0x10
    1b80:	00072783          	lw	a5,0(a4)
    1b84:	fed7eee3          	bltu	a5,a3,1b80 <print_hex32+0x28>
    1b88:	04000837          	lui	a6,0x4000
    1b8c:	04080813          	addi	a6,a6,64 # 4000040 <_stack_end+0x3efc070>
    1b90:	07800793          	li	a5,120
    1b94:	04000737          	lui	a4,0x4000
    1b98:	00f82023          	sw	a5,0(a6)
    1b9c:	04470713          	addi	a4,a4,68 # 4000044 <_stack_end+0x3efc074>
    1ba0:	01c00613          	li	a2,28
    1ba4:	00900313          	li	t1,9
    1ba8:	000106b7          	lui	a3,0x10
    1bac:	ffc00893          	li	a7,-4
    1bb0:	00c557b3          	srl	a5,a0,a2
    1bb4:	00f7f793          	andi	a5,a5,15
    1bb8:	03778593          	addi	a1,a5,55
    1bbc:	00f36463          	bltu	t1,a5,1bc4 <print_hex32+0x6c>
    1bc0:	03078593          	addi	a1,a5,48
    1bc4:	00072783          	lw	a5,0(a4)
    1bc8:	fed7eee3          	bltu	a5,a3,1bc4 <print_hex32+0x6c>
    1bcc:	00b82023          	sw	a1,0(a6)
    1bd0:	ffc60613          	addi	a2,a2,-4 # fffc <__global_pointer+0xbf27>
    1bd4:	fd161ee3          	bne	a2,a7,1bb0 <print_hex32+0x58>
    1bd8:	00008067          	ret

00001bdc <handle_exception>:
    1bdc:	00200793          	li	a5,2
    1be0:	1af80463          	beq	a6,a5,1d88 <handle_exception+0x1ac>
    1be4:	00b00793          	li	a5,11
    1be8:	12f80663          	beq	a6,a5,1d14 <handle_exception+0x138>
    1bec:	14081c63          	bnez	a6,1d44 <handle_exception+0x168>
    1bf0:	00004637          	lui	a2,0x4
    1bf4:	000048b7          	lui	a7,0x4
    1bf8:	04000737          	lui	a4,0x4000
    1bfc:	04000837          	lui	a6,0x4000
    1c00:	e5460613          	addi	a2,a2,-428 # 3e54 <CSWTCH.28+0x1a4>
    1c04:	e8388893          	addi	a7,a7,-381 # 3e83 <CSWTCH.28+0x1d3>
    1c08:	04470713          	addi	a4,a4,68 # 4000044 <_stack_end+0x3efc074>
    1c0c:	04080813          	addi	a6,a6,64 # 4000040 <_stack_end+0x3efc070>
    1c10:	00a00593          	li	a1,10
    1c14:	000106b7          	lui	a3,0x10
    1c18:	00072783          	lw	a5,0(a4)
    1c1c:	fed7eee3          	bltu	a5,a3,1c18 <handle_exception+0x3c>
    1c20:	00b82023          	sw	a1,0(a6)
    1c24:	00160613          	addi	a2,a2,1
    1c28:	00064583          	lbu	a1,0(a2)
    1c2c:	ff1616e3          	bne	a2,a7,1c18 <handle_exception+0x3c>
    1c30:	00004637          	lui	a2,0x4
    1c34:	000048b7          	lui	a7,0x4
    1c38:	04000737          	lui	a4,0x4000
    1c3c:	04000837          	lui	a6,0x4000
    1c40:	ec860613          	addi	a2,a2,-312 # 3ec8 <CSWTCH.28+0x218>
    1c44:	edb88893          	addi	a7,a7,-293 # 3edb <CSWTCH.28+0x22b>
    1c48:	04470713          	addi	a4,a4,68 # 4000044 <_stack_end+0x3efc074>
    1c4c:	04080813          	addi	a6,a6,64 # 4000040 <_stack_end+0x3efc070>
    1c50:	04500593          	li	a1,69
    1c54:	000106b7          	lui	a3,0x10
    1c58:	00072783          	lw	a5,0(a4)
    1c5c:	fed7eee3          	bltu	a5,a3,1c58 <handle_exception+0x7c>
    1c60:	00b82023          	sw	a1,0(a6)
    1c64:	00160613          	addi	a2,a2,1
    1c68:	00064583          	lbu	a1,0(a2)
    1c6c:	ff1616e3          	bne	a2,a7,1c58 <handle_exception+0x7c>
    1c70:	04000737          	lui	a4,0x4000
    1c74:	04470713          	addi	a4,a4,68 # 4000044 <_stack_end+0x3efc074>
    1c78:	000106b7          	lui	a3,0x10
    1c7c:	00072783          	lw	a5,0(a4)
    1c80:	fed7eee3          	bltu	a5,a3,1c7c <handle_exception+0xa0>
    1c84:	040007b7          	lui	a5,0x4000
    1c88:	03000693          	li	a3,48
    1c8c:	04d7a023          	sw	a3,64(a5) # 4000040 <_stack_end+0x3efc070>
    1c90:	04478713          	addi	a4,a5,68
    1c94:	000106b7          	lui	a3,0x10
    1c98:	00072783          	lw	a5,0(a4)
    1c9c:	fed7eee3          	bltu	a5,a3,1c98 <handle_exception+0xbc>
    1ca0:	04000837          	lui	a6,0x4000
    1ca4:	04080813          	addi	a6,a6,64 # 4000040 <_stack_end+0x3efc070>
    1ca8:	07800793          	li	a5,120
    1cac:	04000737          	lui	a4,0x4000
    1cb0:	00f82023          	sw	a5,0(a6)
    1cb4:	04470713          	addi	a4,a4,68 # 4000044 <_stack_end+0x3efc074>
    1cb8:	01c00613          	li	a2,28
    1cbc:	00900313          	li	t1,9
    1cc0:	000106b7          	lui	a3,0x10
    1cc4:	ffc00893          	li	a7,-4
    1cc8:	00c557b3          	srl	a5,a0,a2
    1ccc:	00f7f793          	andi	a5,a5,15
    1cd0:	03778593          	addi	a1,a5,55
    1cd4:	00f36463          	bltu	t1,a5,1cdc <handle_exception+0x100>
    1cd8:	03078593          	addi	a1,a5,48
    1cdc:	00072783          	lw	a5,0(a4)
    1ce0:	fed7eee3          	bltu	a5,a3,1cdc <handle_exception+0x100>
    1ce4:	00b82023          	sw	a1,0(a6)
    1ce8:	ffc60613          	addi	a2,a2,-4
    1cec:	fd161ee3          	bne	a2,a7,1cc8 <handle_exception+0xec>
    1cf0:	04000737          	lui	a4,0x4000
    1cf4:	04470713          	addi	a4,a4,68 # 4000044 <_stack_end+0x3efc074>
    1cf8:	000106b7          	lui	a3,0x10
    1cfc:	00072783          	lw	a5,0(a4)
    1d00:	fed7eee3          	bltu	a5,a3,1cfc <handle_exception+0x120>
    1d04:	040007b7          	lui	a5,0x4000
    1d08:	00a00713          	li	a4,10
    1d0c:	04e7a023          	sw	a4,64(a5) # 4000040 <_stack_end+0x3efc070>
    1d10:	0000006f          	j	1d10 <handle_exception+0x134>
    1d14:	00400793          	li	a5,4
    1d18:	0af88a63          	beq	a7,a5,1dcc <handle_exception+0x1f0>
    1d1c:	0f089463          	bne	a7,a6,1e04 <handle_exception+0x228>
    1d20:	04000737          	lui	a4,0x4000
    1d24:	04470713          	addi	a4,a4,68 # 4000044 <_stack_end+0x3efc074>
    1d28:	000106b7          	lui	a3,0x10
    1d2c:	00072783          	lw	a5,0(a4)
    1d30:	fed7eee3          	bltu	a5,a3,1d2c <handle_exception+0x150>
    1d34:	040007b7          	lui	a5,0x4000
    1d38:	0ff57513          	zext.b	a0,a0
    1d3c:	04a7a023          	sw	a0,64(a5) # 4000040 <_stack_end+0x3efc070>
    1d40:	00008067          	ret
    1d44:	00004637          	lui	a2,0x4
    1d48:	000048b7          	lui	a7,0x4
    1d4c:	04000737          	lui	a4,0x4000
    1d50:	04000837          	lui	a6,0x4000
    1d54:	ea860613          	addi	a2,a2,-344 # 3ea8 <CSWTCH.28+0x1f8>
    1d58:	ec488893          	addi	a7,a7,-316 # 3ec4 <CSWTCH.28+0x214>
    1d5c:	04470713          	addi	a4,a4,68 # 4000044 <_stack_end+0x3efc074>
    1d60:	04080813          	addi	a6,a6,64 # 4000040 <_stack_end+0x3efc070>
    1d64:	00a00593          	li	a1,10
    1d68:	000106b7          	lui	a3,0x10
    1d6c:	00072783          	lw	a5,0(a4)
    1d70:	fed7eee3          	bltu	a5,a3,1d6c <handle_exception+0x190>
    1d74:	00b82023          	sw	a1,0(a6)
    1d78:	00160613          	addi	a2,a2,1
    1d7c:	00064583          	lbu	a1,0(a2)
    1d80:	ff1616e3          	bne	a2,a7,1d6c <handle_exception+0x190>
    1d84:	eadff06f          	j	1c30 <handle_exception+0x54>
    1d88:	00004637          	lui	a2,0x4
    1d8c:	000048b7          	lui	a7,0x4
    1d90:	04000737          	lui	a4,0x4000
    1d94:	04000837          	lui	a6,0x4000
    1d98:	e8460613          	addi	a2,a2,-380 # 3e84 <CSWTCH.28+0x1d4>
    1d9c:	ea688893          	addi	a7,a7,-346 # 3ea6 <CSWTCH.28+0x1f6>
    1da0:	04470713          	addi	a4,a4,68 # 4000044 <_stack_end+0x3efc074>
    1da4:	04080813          	addi	a6,a6,64 # 4000040 <_stack_end+0x3efc070>
    1da8:	00a00593          	li	a1,10
    1dac:	000106b7          	lui	a3,0x10
    1db0:	00072783          	lw	a5,0(a4)
    1db4:	fed7eee3          	bltu	a5,a3,1db0 <handle_exception+0x1d4>
    1db8:	00b82023          	sw	a1,0(a6)
    1dbc:	00160613          	addi	a2,a2,1
    1dc0:	00064583          	lbu	a1,0(a2)
    1dc4:	ff1616e3          	bne	a2,a7,1db0 <handle_exception+0x1d4>
    1dc8:	e69ff06f          	j	1c30 <handle_exception+0x54>
    1dcc:	00054603          	lbu	a2,0(a0)
    1dd0:	02060a63          	beqz	a2,1e04 <handle_exception+0x228>
    1dd4:	04000737          	lui	a4,0x4000
    1dd8:	040005b7          	lui	a1,0x4000
    1ddc:	04470713          	addi	a4,a4,68 # 4000044 <_stack_end+0x3efc074>
    1de0:	04058593          	addi	a1,a1,64 # 4000040 <_stack_end+0x3efc070>
    1de4:	000106b7          	lui	a3,0x10
    1de8:	00072783          	lw	a5,0(a4)
    1dec:	fed7eee3          	bltu	a5,a3,1de8 <handle_exception+0x20c>
    1df0:	00c5a023          	sw	a2,0(a1)
    1df4:	00154603          	lbu	a2,1(a0)
    1df8:	00150513          	addi	a0,a0,1
    1dfc:	fe0616e3          	bnez	a2,1de8 <handle_exception+0x20c>
    1e00:	00008067          	ret
    1e04:	00008067          	ret

00001e08 <nextprime>:
    1e08:	00200793          	li	a5,2
    1e0c:	02a7c063          	blt	a5,a0,1e2c <nextprime+0x24>
    1e10:	00100693          	li	a3,1
    1e14:	00a05863          	blez	a0,1e24 <nextprime+0x1c>
    1e18:	fff50793          	addi	a5,a0,-1
    1e1c:	00f037b3          	snez	a5,a5
    1e20:	00278693          	addi	a3,a5,2
    1e24:	00068513          	mv	a0,a3
    1e28:	00008067          	ret
    1e2c:	00150513          	addi	a0,a0,1
    1e30:	00156693          	ori	a3,a0,1
    1e34:	00300793          	li	a5,3
    1e38:	02f6e733          	rem	a4,a3,a5
    1e3c:	4016d613          	srai	a2,a3,0x1
    1e40:	00260613          	addi	a2,a2,2
    1e44:	00178793          	addi	a5,a5,1
    1e48:	00070a63          	beqz	a4,1e5c <nextprime+0x54>
    1e4c:	fcf60ce3          	beq	a2,a5,1e24 <nextprime+0x1c>
    1e50:	02f6e733          	rem	a4,a3,a5
    1e54:	00178793          	addi	a5,a5,1
    1e58:	fe071ae3          	bnez	a4,1e4c <nextprime+0x44>
    1e5c:	00268693          	addi	a3,a3,2 # 10002 <__global_pointer+0xbf2d>
    1e60:	fd5ff06f          	j	1e34 <nextprime+0x2c>

00001e64 <analyze>:
    1e64:	03000413          	li	s0,48

00001e68 <loop>:
    1e68:	00040513          	mv	a0,s0
    1e6c:	00b00893          	li	a7,11
    1e70:	00000073          	ecall
    1e74:	00340413          	addi	s0,s0,3
    1e78:	05a00293          	li	t0,90
    1e7c:	fe82d6e3          	bge	t0,s0,1e68 <loop>
    1e80:	00008067          	ret

00001e84 <display_string>:
    1e84:	00400893          	li	a7,4
    1e88:	00000073          	ecall
    1e8c:	00a00513          	li	a0,10
    1e90:	00b00893          	li	a7,11
    1e94:	00000073          	ecall
    1e98:	00008067          	ret

00001e9c <timetemplate>:
    1e9c:	00002517          	auipc	a0,0x2
    1ea0:	a1c50513          	addi	a0,a0,-1508 # 38b8 <timstr>
    1ea4:	fe1ff0ef          	jal	1e84 <display_string>
    1ea8:	3e800513          	li	a0,1000
    1eac:	0e4000ef          	jal	1f90 <delay>
    1eb0:	00002517          	auipc	a0,0x2
    1eb4:	a0450513          	addi	a0,a0,-1532 # 38b4 <mytime>
    1eb8:	020000ef          	jal	1ed8 <tick>
    1ebc:	00002517          	auipc	a0,0x2
    1ec0:	9fc50513          	addi	a0,a0,-1540 # 38b8 <timstr>
    1ec4:	00002297          	auipc	t0,0x2
    1ec8:	9f028293          	addi	t0,t0,-1552 # 38b4 <mytime>
    1ecc:	0002a583          	lw	a1,0(t0)
    1ed0:	0e4000ef          	jal	1fb4 <time2string>
    1ed4:	fc9ff06f          	j	1e9c <timetemplate>

00001ed8 <tick>:
    1ed8:	00052283          	lw	t0,0(a0)
    1edc:	00128293          	addi	t0,t0,1
    1ee0:	00f2f313          	andi	t1,t0,15
    1ee4:	00a33393          	sltiu	t2,t1,10
    1ee8:	06039063          	bnez	t2,1f48 <tiend>
    1eec:	00628293          	addi	t0,t0,6
    1ef0:	0f02f313          	andi	t1,t0,240
    1ef4:	06033393          	sltiu	t2,t1,96
    1ef8:	04039863          	bnez	t2,1f48 <tiend>
    1efc:	0a028293          	addi	t0,t0,160
    1f00:	00f00e13          	li	t3,15
    1f04:	008e1e13          	slli	t3,t3,0x8
    1f08:	01c2f333          	and	t1,t0,t3
    1f0c:	00a00e13          	li	t3,10
    1f10:	008e1e13          	slli	t3,t3,0x8
    1f14:	01c323b3          	slt	t2,t1,t3
    1f18:	02039863          	bnez	t2,1f48 <tiend>
    1f1c:	60028293          	addi	t0,t0,1536
    1f20:	00f00e13          	li	t3,15
    1f24:	00ce1e13          	slli	t3,t3,0xc
    1f28:	01c2f333          	and	t1,t0,t3
    1f2c:	00600e13          	li	t3,6
    1f30:	00ce1e13          	slli	t3,t3,0xc
    1f34:	01c323b3          	slt	t2,t1,t3
    1f38:	00039863          	bnez	t2,1f48 <tiend>
    1f3c:	00a00e13          	li	t3,10
    1f40:	00ce1e13          	slli	t3,t3,0xc
    1f44:	01c282b3          	add	t0,t0,t3

00001f48 <tiend>:
    1f48:	00552023          	sw	t0,0(a0)
    1f4c:	00008067          	ret

00001f50 <hex2asc>:
    1f50:	00c00513          	li	a0,12
    1f54:	ffc10113          	addi	sp,sp,-4
    1f58:	00112023          	sw	ra,0(sp)
    1f5c:	018000ef          	jal	1f74 <hexasc>
    1f60:	00b00893          	li	a7,11
    1f64:	00000073          	ecall
    1f68:	00012083          	lw	ra,0(sp)
    1f6c:	00410113          	addi	sp,sp,4
    1f70:	00008067          	ret

00001f74 <hexasc>:
    1f74:	00f57513          	andi	a0,a0,15
    1f78:	00900293          	li	t0,9
    1f7c:	00a2d663          	bge	t0,a0,1f88 <nummerasc>
    1f80:	03750513          	addi	a0,a0,55
    1f84:	00008067          	ret

00001f88 <nummerasc>:
    1f88:	03050513          	addi	a0,a0,48
    1f8c:	00008067          	ret

00001f90 <delay>:
    1f90:	02a05063          	blez	a0,1fb0 <notwhile>
    1f94:	000002b3          	add	t0,zero,zero
    1f98:	1d700313          	li	t1,471

00001f9c <forloop>:
    1f9c:	00628663          	beq	t0,t1,1fa8 <ms>
    1fa0:	00128293          	addi	t0,t0,1
    1fa4:	ff9ff06f          	j	1f9c <forloop>

00001fa8 <ms>:
    1fa8:	fff50513          	addi	a0,a0,-1
    1fac:	fe5ff06f          	j	1f90 <delay>

00001fb0 <notwhile>:
    1fb0:	00008067          	ret

00001fb4 <time2string>:
    1fb4:	ffc10113          	addi	sp,sp,-4
    1fb8:	00112023          	sw	ra,0(sp)
    1fbc:	ffc10113          	addi	sp,sp,-4
    1fc0:	00812023          	sw	s0,0(sp)
    1fc4:	ffc10113          	addi	sp,sp,-4
    1fc8:	00912023          	sw	s1,0(sp)
    1fcc:	ffc10113          	addi	sp,sp,-4
    1fd0:	01212023          	sw	s2,0(sp)
    1fd4:	00050433          	add	s0,a0,zero
    1fd8:	000584b3          	add	s1,a1,zero
    1fdc:	00c4d913          	srli	s2,s1,0xc
    1fe0:	00f97913          	andi	s2,s2,15
    1fe4:	00090533          	add	a0,s2,zero
    1fe8:	f8dff0ef          	jal	1f74 <hexasc>
    1fec:	00a40023          	sb	a0,0(s0)
    1ff0:	00140413          	addi	s0,s0,1
    1ff4:	0084d913          	srli	s2,s1,0x8
    1ff8:	00f97913          	andi	s2,s2,15
    1ffc:	00090533          	add	a0,s2,zero
    2000:	f75ff0ef          	jal	1f74 <hexasc>
    2004:	00a40023          	sb	a0,0(s0)
    2008:	00140413          	addi	s0,s0,1
    200c:	03a00913          	li	s2,58
    2010:	01240023          	sb	s2,0(s0)
    2014:	00140413          	addi	s0,s0,1
    2018:	0044d913          	srli	s2,s1,0x4
    201c:	00f97913          	andi	s2,s2,15
    2020:	00090533          	add	a0,s2,zero
    2024:	f51ff0ef          	jal	1f74 <hexasc>
    2028:	00a40023          	sb	a0,0(s0)
    202c:	00140413          	addi	s0,s0,1
    2030:	00f4f913          	andi	s2,s1,15
    2034:	00090533          	add	a0,s2,zero
    2038:	f3dff0ef          	jal	1f74 <hexasc>
    203c:	00a40023          	sb	a0,0(s0)
    2040:	00140413          	addi	s0,s0,1
    2044:	00040023          	sb	zero,0(s0)
    2048:	00012903          	lw	s2,0(sp)
    204c:	00410113          	addi	sp,sp,4
    2050:	00012483          	lw	s1,0(sp)
    2054:	00410113          	addi	sp,sp,4
    2058:	00012403          	lw	s0,0(sp)
    205c:	00410113          	addi	sp,sp,4
    2060:	00012083          	lw	ra,0(sp)
    2064:	00410113          	addi	sp,sp,4
    2068:	00008067          	ret

0000206c <srand>:
    206c:	000047b7          	lui	a5,0x4
    2070:	00051463          	bnez	a0,2078 <srand+0xc>
    2074:	00100513          	li	a0,1
    2078:	8ea7ac23          	sw	a0,-1800(a5) # 38f8 <rng_state>
    207c:	00008067          	ret

00002080 <rand>:
    2080:	00004737          	lui	a4,0x4
    2084:	8f872503          	lw	a0,-1800(a4) # 38f8 <rng_state>
    2088:	41c657b7          	lui	a5,0x41c65
    208c:	e6d78793          	addi	a5,a5,-403 # 41c64e6d <_stack_end+0x41b60e9d>
    2090:	02f50533          	mul	a0,a0,a5
    2094:	000037b7          	lui	a5,0x3
    2098:	03978793          	addi	a5,a5,57 # 3039 <rotate+0x265>
    209c:	00f50533          	add	a0,a0,a5
    20a0:	00151793          	slli	a5,a0,0x1
    20a4:	8ea72c23          	sw	a0,-1800(a4)
    20a8:	0117d513          	srli	a0,a5,0x11
    20ac:	00008067          	ret

000020b0 <time>:
    20b0:	000047b7          	lui	a5,0x4
    20b4:	8e87a703          	lw	a4,-1816(a5) # 38e8 <fake.0>
    20b8:	8ec7a583          	lw	a1,-1812(a5)
    20bc:	00050663          	beqz	a0,20c8 <time+0x18>
    20c0:	00e52023          	sw	a4,0(a0)
    20c4:	00b52223          	sw	a1,4(a0)
    20c8:	00170613          	addi	a2,a4,1
    20cc:	00e636b3          	sltu	a3,a2,a4
    20d0:	00b686b3          	add	a3,a3,a1
    20d4:	8ec7a423          	sw	a2,-1816(a5)
    20d8:	8ed7a623          	sw	a3,-1812(a5)
    20dc:	00070513          	mv	a0,a4
    20e0:	00008067          	ret

000020e4 <reachedBottom>:
    20e4:	00004737          	lui	a4,0x4
    20e8:	8fc70713          	addi	a4,a4,-1796 # 38fc <currentshape>
    20ec:	01472783          	lw	a5,20(a4)
    20f0:	01300813          	li	a6,19
    20f4:	00100513          	li	a0,1
    20f8:	0d078663          	beq	a5,a6,21c4 <reachedBottom+0xe0>
    20fc:	00472583          	lw	a1,4(a4)
    2100:	00a786b3          	add	a3,a5,a0
    2104:	01872603          	lw	a2,24(a4)
    2108:	00259793          	slli	a5,a1,0x2
    210c:	00b787b3          	add	a5,a5,a1
    2110:	00279793          	slli	a5,a5,0x2
    2114:	00d787b3          	add	a5,a5,a3
    2118:	00279793          	slli	a5,a5,0x2
    211c:	00f707b3          	add	a5,a4,a5
    2120:	0247a783          	lw	a5,36(a5)
    2124:	08079e63          	bnez	a5,21c0 <reachedBottom+0xdc>
    2128:	fed60793          	addi	a5,a2,-19
    212c:	08078a63          	beqz	a5,21c0 <reachedBottom+0xdc>
    2130:	00872583          	lw	a1,8(a4)
    2134:	00a60633          	add	a2,a2,a0
    2138:	01c72683          	lw	a3,28(a4)
    213c:	00259793          	slli	a5,a1,0x2
    2140:	00b787b3          	add	a5,a5,a1
    2144:	00279793          	slli	a5,a5,0x2
    2148:	00c787b3          	add	a5,a5,a2
    214c:	00279793          	slli	a5,a5,0x2
    2150:	00f707b3          	add	a5,a4,a5
    2154:	0247a783          	lw	a5,36(a5)
    2158:	06079463          	bnez	a5,21c0 <reachedBottom+0xdc>
    215c:	fed68793          	addi	a5,a3,-19
    2160:	06078063          	beqz	a5,21c0 <reachedBottom+0xdc>
    2164:	00c72603          	lw	a2,12(a4)
    2168:	00a686b3          	add	a3,a3,a0
    216c:	00261793          	slli	a5,a2,0x2
    2170:	00c787b3          	add	a5,a5,a2
    2174:	00279793          	slli	a5,a5,0x2
    2178:	00d787b3          	add	a5,a5,a3
    217c:	00279793          	slli	a5,a5,0x2
    2180:	00f707b3          	add	a5,a4,a5
    2184:	0247a783          	lw	a5,36(a5)
    2188:	02079e63          	bnez	a5,21c4 <reachedBottom+0xe0>
    218c:	02072783          	lw	a5,32(a4)
    2190:	03078a63          	beq	a5,a6,21c4 <reachedBottom+0xe0>
    2194:	01072603          	lw	a2,16(a4)
    2198:	00a786b3          	add	a3,a5,a0
    219c:	00261793          	slli	a5,a2,0x2
    21a0:	00c787b3          	add	a5,a5,a2
    21a4:	00279793          	slli	a5,a5,0x2
    21a8:	00d787b3          	add	a5,a5,a3
    21ac:	00279793          	slli	a5,a5,0x2
    21b0:	00f70733          	add	a4,a4,a5
    21b4:	02472503          	lw	a0,36(a4)
    21b8:	00a03533          	snez	a0,a0
    21bc:	00008067          	ret
    21c0:	00100513          	li	a0,1
    21c4:	00008067          	ret

000021c8 <newBlock>:
    21c8:	000045b7          	lui	a1,0x4
    21cc:	8f85a683          	lw	a3,-1800(a1) # 38f8 <rng_state>
    21d0:	41c657b7          	lui	a5,0x41c65
    21d4:	e6d78793          	addi	a5,a5,-403 # 41c64e6d <_stack_end+0x41b60e9d>
    21d8:	02f686b3          	mul	a3,a3,a5
    21dc:	00003737          	lui	a4,0x3
    21e0:	03970713          	addi	a4,a4,57 # 3039 <rotate+0x265>
    21e4:	924927b7          	lui	a5,0x92492
    21e8:	49378793          	addi	a5,a5,1171 # 92492493 <_stack_end+0x9238e4c3>
    21ec:	00700513          	li	a0,7
    21f0:	00e686b3          	add	a3,a3,a4
    21f4:	00169613          	slli	a2,a3,0x1
    21f8:	01165713          	srli	a4,a2,0x11
    21fc:	02f717b3          	mulh	a5,a4,a5
    2200:	00e787b3          	add	a5,a5,a4
    2204:	4027d793          	srai	a5,a5,0x2
    2208:	00379613          	slli	a2,a5,0x3
    220c:	40f607b3          	sub	a5,a2,a5
    2210:	40f70733          	sub	a4,a4,a5
    2214:	00170713          	addi	a4,a4,1
    2218:	10e56063          	bltu	a0,a4,2318 <newBlock+0x150>
    221c:	00004637          	lui	a2,0x4
    2220:	d4c60613          	addi	a2,a2,-692 # 3d4c <CSWTCH.28+0x9c>
    2224:	00271793          	slli	a5,a4,0x2
    2228:	00c787b3          	add	a5,a5,a2
    222c:	0007a783          	lw	a5,0(a5)
    2230:	00078067          	jr	a5
    2234:	00600513          	li	a0,6
    2238:	00100613          	li	a2,1
    223c:	00050e13          	mv	t3,a0
    2240:	00060313          	mv	t1,a2
    2244:	00000f13          	li	t5,0
    2248:	00500e93          	li	t4,5
    224c:	000047b7          	lui	a5,0x4
    2250:	8fc78793          	addi	a5,a5,-1796 # 38fc <currentshape>
    2254:	00500893          	li	a7,5
    2258:	00004837          	lui	a6,0x4
    225c:	8ed5ac23          	sw	a3,-1800(a1)
    2260:	00e7a023          	sw	a4,0(a5)
    2264:	0007aa23          	sw	zero,20(a5)
    2268:	00a7a423          	sw	a0,8(a5)
    226c:	01e7ac23          	sw	t5,24(a5)
    2270:	01d7a623          	sw	t4,12(a5)
    2274:	00c7ae23          	sw	a2,28(a5)
    2278:	01c7a823          	sw	t3,16(a5)
    227c:	0267a023          	sw	t1,32(a5)
    2280:	0117a223          	sw	a7,4(a5)
    2284:	c6082223          	sw	zero,-924(a6) # 3c64 <storing>
    2288:	00008067          	ret
    228c:	00500513          	li	a0,5
    2290:	00200613          	li	a2,2
    2294:	00050e93          	mv	t4,a0
    2298:	00060313          	mv	t1,a2
    229c:	00100f13          	li	t5,1
    22a0:	00600e13          	li	t3,6
    22a4:	fa9ff06f          	j	224c <newBlock+0x84>
    22a8:	00500513          	li	a0,5
    22ac:	00200613          	li	a2,2
    22b0:	00050e93          	mv	t4,a0
    22b4:	00060313          	mv	t1,a2
    22b8:	00070e13          	mv	t3,a4
    22bc:	00100f13          	li	t5,1
    22c0:	f8dff06f          	j	224c <newBlock+0x84>
    22c4:	00070e13          	mv	t3,a4
    22c8:	00400513          	li	a0,4
    22cc:	00000f13          	li	t5,0
    22d0:	00600e93          	li	t4,6
    22d4:	00000613          	li	a2,0
    22d8:	00100313          	li	t1,1
    22dc:	f71ff06f          	j	224c <newBlock+0x84>
    22e0:	00100613          	li	a2,1
    22e4:	00060313          	mv	t1,a2
    22e8:	00070513          	mv	a0,a4
    22ec:	00000f13          	li	t5,0
    22f0:	00500e93          	li	t4,5
    22f4:	00400e13          	li	t3,4
    22f8:	f55ff06f          	j	224c <newBlock+0x84>
    22fc:	00100613          	li	a2,1
    2300:	00060313          	mv	t1,a2
    2304:	00400513          	li	a0,4
    2308:	00000f13          	li	t5,0
    230c:	00500e93          	li	t4,5
    2310:	00600e13          	li	t3,6
    2314:	f39ff06f          	j	224c <newBlock+0x84>
    2318:	00500513          	li	a0,5
    231c:	00050e93          	mv	t4,a0
    2320:	00050e13          	mv	t3,a0
    2324:	00100f13          	li	t5,1
    2328:	00200613          	li	a2,2
    232c:	00300313          	li	t1,3
    2330:	f1dff06f          	j	224c <newBlock+0x84>

00002334 <setpos>:
    2334:	00052783          	lw	a5,0(a0)
    2338:	00700713          	li	a4,7
    233c:	04f76663          	bltu	a4,a5,2388 <setpos+0x54>
    2340:	00004737          	lui	a4,0x4
    2344:	00279793          	slli	a5,a5,0x2
    2348:	d6c70713          	addi	a4,a4,-660 # 3d6c <CSWTCH.28+0xbc>
    234c:	00e787b3          	add	a5,a5,a4
    2350:	0007a783          	lw	a5,0(a5)
    2354:	00078067          	jr	a5
    2358:	00500713          	li	a4,5
    235c:	00400613          	li	a2,4
    2360:	00100793          	li	a5,1
    2364:	00600693          	li	a3,6
    2368:	00052a23          	sw	zero,20(a0)
    236c:	00052c23          	sw	zero,24(a0)
    2370:	00e52223          	sw	a4,4(a0)
    2374:	00e52623          	sw	a4,12(a0)
    2378:	00c52423          	sw	a2,8(a0)
    237c:	00f52e23          	sw	a5,28(a0)
    2380:	02f52023          	sw	a5,32(a0)
    2384:	00d52823          	sw	a3,16(a0)
    2388:	00008067          	ret
    238c:	00500793          	li	a5,5
    2390:	00100613          	li	a2,1
    2394:	00200693          	li	a3,2
    2398:	00300713          	li	a4,3
    239c:	00052a23          	sw	zero,20(a0)
    23a0:	00f52223          	sw	a5,4(a0)
    23a4:	00f52423          	sw	a5,8(a0)
    23a8:	00f52623          	sw	a5,12(a0)
    23ac:	00f52823          	sw	a5,16(a0)
    23b0:	00c52c23          	sw	a2,24(a0)
    23b4:	00d52e23          	sw	a3,28(a0)
    23b8:	02e52023          	sw	a4,32(a0)
    23bc:	00008067          	ret
    23c0:	00500693          	li	a3,5
    23c4:	00600713          	li	a4,6
    23c8:	00100793          	li	a5,1
    23cc:	00052a23          	sw	zero,20(a0)
    23d0:	00052c23          	sw	zero,24(a0)
    23d4:	00d52223          	sw	a3,4(a0)
    23d8:	00d52623          	sw	a3,12(a0)
    23dc:	00e52423          	sw	a4,8(a0)
    23e0:	00e52823          	sw	a4,16(a0)
    23e4:	00f52e23          	sw	a5,28(a0)
    23e8:	02f52023          	sw	a5,32(a0)
    23ec:	00008067          	ret
    23f0:	00500793          	li	a5,5
    23f4:	00100613          	li	a2,1
    23f8:	00200713          	li	a4,2
    23fc:	00600693          	li	a3,6
    2400:	00052a23          	sw	zero,20(a0)
    2404:	00f52223          	sw	a5,4(a0)
    2408:	00f52423          	sw	a5,8(a0)
    240c:	00f52623          	sw	a5,12(a0)
    2410:	00c52c23          	sw	a2,24(a0)
    2414:	00e52e23          	sw	a4,28(a0)
    2418:	02e52023          	sw	a4,32(a0)
    241c:	00d52823          	sw	a3,16(a0)
    2420:	00008067          	ret
    2424:	00500793          	li	a5,5
    2428:	00100613          	li	a2,1
    242c:	00200713          	li	a4,2
    2430:	00400693          	li	a3,4
    2434:	fcdff06f          	j	2400 <setpos+0xcc>
    2438:	00500793          	li	a5,5
    243c:	00400613          	li	a2,4
    2440:	00600693          	li	a3,6
    2444:	00100713          	li	a4,1
    2448:	00052a23          	sw	zero,20(a0)
    244c:	00052c23          	sw	zero,24(a0)
    2450:	00052e23          	sw	zero,28(a0)
    2454:	00f52223          	sw	a5,4(a0)
    2458:	00f52823          	sw	a5,16(a0)
    245c:	00c52423          	sw	a2,8(a0)
    2460:	00d52623          	sw	a3,12(a0)
    2464:	02e52023          	sw	a4,32(a0)
    2468:	00008067          	ret
    246c:	00500713          	li	a4,5
    2470:	00600613          	li	a2,6
    2474:	00100793          	li	a5,1
    2478:	00400693          	li	a3,4
    247c:	eedff06f          	j	2368 <setpos+0x34>

00002480 <lockPos>:
    2480:	000047b7          	lui	a5,0x4
    2484:	8fc78793          	addi	a5,a5,-1796 # 38fc <currentshape>
    2488:	0047a683          	lw	a3,4(a5)
    248c:	0087a703          	lw	a4,8(a5)
    2490:	00c7a583          	lw	a1,12(a5)
    2494:	0147a503          	lw	a0,20(a5)
    2498:	0107a803          	lw	a6,16(a5)
    249c:	00269613          	slli	a2,a3,0x2
    24a0:	0187ae03          	lw	t3,24(a5)
    24a4:	00d60633          	add	a2,a2,a3
    24a8:	00271693          	slli	a3,a4,0x2
    24ac:	01c7a303          	lw	t1,28(a5)
    24b0:	00e686b3          	add	a3,a3,a4
    24b4:	00261613          	slli	a2,a2,0x2
    24b8:	00259713          	slli	a4,a1,0x2
    24bc:	0207a883          	lw	a7,32(a5)
    24c0:	00a60633          	add	a2,a2,a0
    24c4:	00b70733          	add	a4,a4,a1
    24c8:	0007a503          	lw	a0,0(a5)
    24cc:	00269693          	slli	a3,a3,0x2
    24d0:	00281593          	slli	a1,a6,0x2
    24d4:	00261613          	slli	a2,a2,0x2
    24d8:	01c686b3          	add	a3,a3,t3
    24dc:	00271713          	slli	a4,a4,0x2
    24e0:	010585b3          	add	a1,a1,a6
    24e4:	00c78633          	add	a2,a5,a2
    24e8:	00269693          	slli	a3,a3,0x2
    24ec:	00670733          	add	a4,a4,t1
    24f0:	00259593          	slli	a1,a1,0x2
    24f4:	02a62223          	sw	a0,36(a2)
    24f8:	00d786b3          	add	a3,a5,a3
    24fc:	00271713          	slli	a4,a4,0x2
    2500:	01158633          	add	a2,a1,a7
    2504:	02a6a223          	sw	a0,36(a3)
    2508:	00e78733          	add	a4,a5,a4
    250c:	00261693          	slli	a3,a2,0x2
    2510:	02a72223          	sw	a0,36(a4)
    2514:	00d787b3          	add	a5,a5,a3
    2518:	02a7a223          	sw	a0,36(a5)
    251c:	00008067          	ret

00002520 <gameState>:
    2520:	000047b7          	lui	a5,0x4
    2524:	8fc78793          	addi	a5,a5,-1796 # 38fc <currentshape>
    2528:	0147ae03          	lw	t3,20(a5)
    252c:	01300713          	li	a4,19
    2530:	0cee0863          	beq	t3,a4,2600 <gameState+0xe0>
    2534:	0047a583          	lw	a1,4(a5)
    2538:	001e0693          	addi	a3,t3,1
    253c:	0187a603          	lw	a2,24(a5)
    2540:	00259713          	slli	a4,a1,0x2
    2544:	00b70733          	add	a4,a4,a1
    2548:	00271713          	slli	a4,a4,0x2
    254c:	00d70733          	add	a4,a4,a3
    2550:	00271713          	slli	a4,a4,0x2
    2554:	00e78733          	add	a4,a5,a4
    2558:	02472703          	lw	a4,36(a4)
    255c:	0a071263          	bnez	a4,2600 <gameState+0xe0>
    2560:	fed60713          	addi	a4,a2,-19
    2564:	08070e63          	beqz	a4,2600 <gameState+0xe0>
    2568:	0087a583          	lw	a1,8(a5)
    256c:	00160613          	addi	a2,a2,1
    2570:	01c7a683          	lw	a3,28(a5)
    2574:	00259713          	slli	a4,a1,0x2
    2578:	00b70733          	add	a4,a4,a1
    257c:	00271713          	slli	a4,a4,0x2
    2580:	00c70733          	add	a4,a4,a2
    2584:	00271713          	slli	a4,a4,0x2
    2588:	00e78733          	add	a4,a5,a4
    258c:	02472703          	lw	a4,36(a4)
    2590:	06071863          	bnez	a4,2600 <gameState+0xe0>
    2594:	fed68713          	addi	a4,a3,-19
    2598:	06070463          	beqz	a4,2600 <gameState+0xe0>
    259c:	00c7a583          	lw	a1,12(a5)
    25a0:	00168693          	addi	a3,a3,1
    25a4:	0207a603          	lw	a2,32(a5)
    25a8:	00259713          	slli	a4,a1,0x2
    25ac:	00b70733          	add	a4,a4,a1
    25b0:	00271713          	slli	a4,a4,0x2
    25b4:	00d70733          	add	a4,a4,a3
    25b8:	00271713          	slli	a4,a4,0x2
    25bc:	00e78733          	add	a4,a5,a4
    25c0:	02472703          	lw	a4,36(a4)
    25c4:	02071e63          	bnez	a4,2600 <gameState+0xe0>
    25c8:	fed60713          	addi	a4,a2,-19
    25cc:	02070a63          	beqz	a4,2600 <gameState+0xe0>
    25d0:	0107a683          	lw	a3,16(a5)
    25d4:	00160613          	addi	a2,a2,1
    25d8:	00269713          	slli	a4,a3,0x2
    25dc:	00d70733          	add	a4,a4,a3
    25e0:	00271713          	slli	a4,a4,0x2
    25e4:	00c70733          	add	a4,a4,a2
    25e8:	00271713          	slli	a4,a4,0x2
    25ec:	00e78733          	add	a4,a5,a4
    25f0:	02472703          	lw	a4,36(a4)
    25f4:	00071663          	bnez	a4,2600 <gameState+0xe0>
    25f8:	00100513          	li	a0,1
    25fc:	00008067          	ret
    2600:	00004837          	lui	a6,0x4
    2604:	8f882503          	lw	a0,-1800(a6) # 38f8 <rng_state>
    2608:	41c65737          	lui	a4,0x41c65
    260c:	e6d70713          	addi	a4,a4,-403 # 41c64e6d <_stack_end+0x41b60e9d>
    2610:	02e50533          	mul	a0,a0,a4
    2614:	00003737          	lui	a4,0x3
    2618:	03970713          	addi	a4,a4,57 # 3039 <rotate+0x265>
    261c:	92492337          	lui	t1,0x92492
    2620:	49330313          	addi	t1,t1,1171 # 92492493 <_stack_end+0x9238e4c3>
    2624:	0047a603          	lw	a2,4(a5)
    2628:	0087a683          	lw	a3,8(a5)
    262c:	00c7af03          	lw	t5,12(a5)
    2630:	0107ae83          	lw	t4,16(a5)
    2634:	00261593          	slli	a1,a2,0x2
    2638:	00e50533          	add	a0,a0,a4
    263c:	00151713          	slli	a4,a0,0x1
    2640:	01175893          	srli	a7,a4,0x11
    2644:	02689333          	mulh	t1,a7,t1
    2648:	00c585b3          	add	a1,a1,a2
    264c:	0187a283          	lw	t0,24(a5)
    2650:	00269613          	slli	a2,a3,0x2
    2654:	00d60633          	add	a2,a2,a3
    2658:	01c7af83          	lw	t6,28(a5)
    265c:	002f1693          	slli	a3,t5,0x2
    2660:	00259593          	slli	a1,a1,0x2
    2664:	01c585b3          	add	a1,a1,t3
    2668:	01e686b3          	add	a3,a3,t5
    266c:	0007ae03          	lw	t3,0(a5)
    2670:	002e9713          	slli	a4,t4,0x2
    2674:	0207af03          	lw	t5,32(a5)
    2678:	00261613          	slli	a2,a2,0x2
    267c:	01130333          	add	t1,t1,a7
    2680:	01d70733          	add	a4,a4,t4
    2684:	00259593          	slli	a1,a1,0x2
    2688:	00560633          	add	a2,a2,t0
    268c:	00269693          	slli	a3,a3,0x2
    2690:	40235313          	srai	t1,t1,0x2
    2694:	00b785b3          	add	a1,a5,a1
    2698:	00261613          	slli	a2,a2,0x2
    269c:	01f686b3          	add	a3,a3,t6
    26a0:	00271713          	slli	a4,a4,0x2
    26a4:	03c5a223          	sw	t3,36(a1)
    26a8:	00331e93          	slli	t4,t1,0x3
    26ac:	00c78633          	add	a2,a5,a2
    26b0:	00269693          	slli	a3,a3,0x2
    26b4:	01e70733          	add	a4,a4,t5
    26b8:	03c62223          	sw	t3,36(a2)
    26bc:	406e85b3          	sub	a1,t4,t1
    26c0:	00d786b3          	add	a3,a5,a3
    26c4:	00271713          	slli	a4,a4,0x2
    26c8:	00e78733          	add	a4,a5,a4
    26cc:	40b888b3          	sub	a7,a7,a1
    26d0:	03c6a223          	sw	t3,36(a3)
    26d4:	03c72223          	sw	t3,36(a4)
    26d8:	00188893          	addi	a7,a7,1
    26dc:	00700713          	li	a4,7
    26e0:	0f176e63          	bltu	a4,a7,27dc <gameState+0x2bc>
    26e4:	000046b7          	lui	a3,0x4
    26e8:	d8c68693          	addi	a3,a3,-628 # 3d8c <CSWTCH.28+0xdc>
    26ec:	00289713          	slli	a4,a7,0x2
    26f0:	00d70733          	add	a4,a4,a3
    26f4:	00072703          	lw	a4,0(a4)
    26f8:	00070067          	jr	a4
    26fc:	00600693          	li	a3,6
    2700:	00100713          	li	a4,1
    2704:	00068e13          	mv	t3,a3
    2708:	00070313          	mv	t1,a4
    270c:	00000f13          	li	t5,0
    2710:	00500e93          	li	t4,5
    2714:	00500593          	li	a1,5
    2718:	00004637          	lui	a2,0x4
    271c:	8ea82c23          	sw	a0,-1800(a6)
    2720:	0117a023          	sw	a7,0(a5)
    2724:	0007aa23          	sw	zero,20(a5)
    2728:	00d7a423          	sw	a3,8(a5)
    272c:	01e7ac23          	sw	t5,24(a5)
    2730:	01d7a623          	sw	t4,12(a5)
    2734:	00e7ae23          	sw	a4,28(a5)
    2738:	01c7a823          	sw	t3,16(a5)
    273c:	0267a023          	sw	t1,32(a5)
    2740:	00b7a223          	sw	a1,4(a5)
    2744:	c6062223          	sw	zero,-924(a2) # 3c64 <storing>
    2748:	00100513          	li	a0,1
    274c:	00008067          	ret
    2750:	00500693          	li	a3,5
    2754:	00200713          	li	a4,2
    2758:	00068e93          	mv	t4,a3
    275c:	00070313          	mv	t1,a4
    2760:	00100f13          	li	t5,1
    2764:	00600e13          	li	t3,6
    2768:	fadff06f          	j	2714 <gameState+0x1f4>
    276c:	00500693          	li	a3,5
    2770:	00200713          	li	a4,2
    2774:	00068e93          	mv	t4,a3
    2778:	00070313          	mv	t1,a4
    277c:	00088e13          	mv	t3,a7
    2780:	00100f13          	li	t5,1
    2784:	f91ff06f          	j	2714 <gameState+0x1f4>
    2788:	00100713          	li	a4,1
    278c:	00070313          	mv	t1,a4
    2790:	00088693          	mv	a3,a7
    2794:	00000f13          	li	t5,0
    2798:	00500e93          	li	t4,5
    279c:	00400e13          	li	t3,4
    27a0:	f75ff06f          	j	2714 <gameState+0x1f4>
    27a4:	00100713          	li	a4,1
    27a8:	00070313          	mv	t1,a4
    27ac:	00400693          	li	a3,4
    27b0:	00000f13          	li	t5,0
    27b4:	00500e93          	li	t4,5
    27b8:	00600e13          	li	t3,6
    27bc:	f59ff06f          	j	2714 <gameState+0x1f4>
    27c0:	00088e13          	mv	t3,a7
    27c4:	00400693          	li	a3,4
    27c8:	00000f13          	li	t5,0
    27cc:	00600e93          	li	t4,6
    27d0:	00000713          	li	a4,0
    27d4:	00100313          	li	t1,1
    27d8:	f3dff06f          	j	2714 <gameState+0x1f4>
    27dc:	00500693          	li	a3,5
    27e0:	00068e93          	mv	t4,a3
    27e4:	00068e13          	mv	t3,a3
    27e8:	00100f13          	li	t5,1
    27ec:	00200713          	li	a4,2
    27f0:	00300313          	li	t1,3
    27f4:	f21ff06f          	j	2714 <gameState+0x1f4>

000027f8 <right>:
    27f8:	000047b7          	lui	a5,0x4
    27fc:	8fc78793          	addi	a5,a5,-1796 # 38fc <currentshape>
    2800:	0107a703          	lw	a4,16(a5)
    2804:	0047af83          	lw	t6,4(a5)
    2808:	0087af03          	lw	t5,8(a5)
    280c:	00c7ae83          	lw	t4,12(a5)
    2810:	0007a683          	lw	a3,0(a5)
    2814:	0147a883          	lw	a7,20(a5)
    2818:	0187a303          	lw	t1,24(a5)
    281c:	01c7ae03          	lw	t3,28(a5)
    2820:	0207a803          	lw	a6,32(a5)
    2824:	fd010113          	addi	sp,sp,-48
    2828:	00170513          	addi	a0,a4,1
    282c:	00d12623          	sw	a3,12(sp)
    2830:	001f0613          	addi	a2,t5,1
    2834:	001f8693          	addi	a3,t6,1
    2838:	001e8593          	addi	a1,t4,1
    283c:	00e12e23          	sw	a4,28(sp)
    2840:	01f12823          	sw	t6,16(sp)
    2844:	00d7a223          	sw	a3,4(a5)
    2848:	01e12a23          	sw	t5,20(sp)
    284c:	00c7a423          	sw	a2,8(a5)
    2850:	01d12c23          	sw	t4,24(sp)
    2854:	00b7a623          	sw	a1,12(a5)
    2858:	00a7a823          	sw	a0,16(a5)
    285c:	03112023          	sw	a7,32(sp)
    2860:	0148b713          	sltiu	a4,a7,20
    2864:	02612223          	sw	t1,36(sp)
    2868:	03c12423          	sw	t3,40(sp)
    286c:	03012623          	sw	a6,44(sp)
    2870:	0c070263          	beqz	a4,2934 <right+0x13c>
    2874:	00a6b713          	sltiu	a4,a3,10
    2878:	0a070e63          	beqz	a4,2934 <right+0x13c>
    287c:	00269713          	slli	a4,a3,0x2
    2880:	00d70733          	add	a4,a4,a3
    2884:	00271713          	slli	a4,a4,0x2
    2888:	01170733          	add	a4,a4,a7
    288c:	00271713          	slli	a4,a4,0x2
    2890:	00e78733          	add	a4,a5,a4
    2894:	02472703          	lw	a4,36(a4)
    2898:	08071e63          	bnez	a4,2934 <right+0x13c>
    289c:	00a63713          	sltiu	a4,a2,10
    28a0:	08070a63          	beqz	a4,2934 <right+0x13c>
    28a4:	01433713          	sltiu	a4,t1,20
    28a8:	08070663          	beqz	a4,2934 <right+0x13c>
    28ac:	00261713          	slli	a4,a2,0x2
    28b0:	00c70733          	add	a4,a4,a2
    28b4:	00271713          	slli	a4,a4,0x2
    28b8:	00670733          	add	a4,a4,t1
    28bc:	00271713          	slli	a4,a4,0x2
    28c0:	00e78733          	add	a4,a5,a4
    28c4:	02472703          	lw	a4,36(a4)
    28c8:	06071663          	bnez	a4,2934 <right+0x13c>
    28cc:	00a5b713          	sltiu	a4,a1,10
    28d0:	06070263          	beqz	a4,2934 <right+0x13c>
    28d4:	014e3713          	sltiu	a4,t3,20
    28d8:	04070e63          	beqz	a4,2934 <right+0x13c>
    28dc:	00259713          	slli	a4,a1,0x2
    28e0:	00b70733          	add	a4,a4,a1
    28e4:	00271713          	slli	a4,a4,0x2
    28e8:	01c70733          	add	a4,a4,t3
    28ec:	00271713          	slli	a4,a4,0x2
    28f0:	00e78733          	add	a4,a5,a4
    28f4:	02472703          	lw	a4,36(a4)
    28f8:	02071e63          	bnez	a4,2934 <right+0x13c>
    28fc:	01483713          	sltiu	a4,a6,20
    2900:	02070a63          	beqz	a4,2934 <right+0x13c>
    2904:	00a53713          	sltiu	a4,a0,10
    2908:	02070663          	beqz	a4,2934 <right+0x13c>
    290c:	00251713          	slli	a4,a0,0x2
    2910:	00a70733          	add	a4,a4,a0
    2914:	00271713          	slli	a4,a4,0x2
    2918:	01070733          	add	a4,a4,a6
    291c:	00271713          	slli	a4,a4,0x2
    2920:	00e78733          	add	a4,a5,a4
    2924:	02472703          	lw	a4,36(a4)
    2928:	00071663          	bnez	a4,2934 <right+0x13c>
    292c:	03010113          	addi	sp,sp,48
    2930:	00008067          	ret
    2934:	00c12e03          	lw	t3,12(sp)
    2938:	01012303          	lw	t1,16(sp)
    293c:	01412883          	lw	a7,20(sp)
    2940:	01812803          	lw	a6,24(sp)
    2944:	01c12503          	lw	a0,28(sp)
    2948:	02012583          	lw	a1,32(sp)
    294c:	02412603          	lw	a2,36(sp)
    2950:	02812683          	lw	a3,40(sp)
    2954:	02c12703          	lw	a4,44(sp)
    2958:	01c7a023          	sw	t3,0(a5)
    295c:	0067a223          	sw	t1,4(a5)
    2960:	0117a423          	sw	a7,8(a5)
    2964:	0107a623          	sw	a6,12(a5)
    2968:	00a7a823          	sw	a0,16(a5)
    296c:	00b7aa23          	sw	a1,20(a5)
    2970:	00c7ac23          	sw	a2,24(a5)
    2974:	00d7ae23          	sw	a3,28(a5)
    2978:	02e7a023          	sw	a4,32(a5)
    297c:	03010113          	addi	sp,sp,48
    2980:	00008067          	ret

00002984 <left>:
    2984:	000047b7          	lui	a5,0x4
    2988:	8fc78793          	addi	a5,a5,-1796 # 38fc <currentshape>
    298c:	0107a703          	lw	a4,16(a5)
    2990:	0047af83          	lw	t6,4(a5)
    2994:	0087af03          	lw	t5,8(a5)
    2998:	00c7ae83          	lw	t4,12(a5)
    299c:	0007a683          	lw	a3,0(a5)
    29a0:	0147a883          	lw	a7,20(a5)
    29a4:	0187a303          	lw	t1,24(a5)
    29a8:	01c7ae03          	lw	t3,28(a5)
    29ac:	0207a803          	lw	a6,32(a5)
    29b0:	fd010113          	addi	sp,sp,-48
    29b4:	fff70513          	addi	a0,a4,-1
    29b8:	00d12623          	sw	a3,12(sp)
    29bc:	ffff0613          	addi	a2,t5,-1
    29c0:	ffff8693          	addi	a3,t6,-1
    29c4:	fffe8593          	addi	a1,t4,-1
    29c8:	00e12e23          	sw	a4,28(sp)
    29cc:	01f12823          	sw	t6,16(sp)
    29d0:	00d7a223          	sw	a3,4(a5)
    29d4:	01e12a23          	sw	t5,20(sp)
    29d8:	00c7a423          	sw	a2,8(a5)
    29dc:	01d12c23          	sw	t4,24(sp)
    29e0:	00b7a623          	sw	a1,12(a5)
    29e4:	00a7a823          	sw	a0,16(a5)
    29e8:	03112023          	sw	a7,32(sp)
    29ec:	0148b713          	sltiu	a4,a7,20
    29f0:	02612223          	sw	t1,36(sp)
    29f4:	03c12423          	sw	t3,40(sp)
    29f8:	03012623          	sw	a6,44(sp)
    29fc:	0c070263          	beqz	a4,2ac0 <left+0x13c>
    2a00:	00a6b713          	sltiu	a4,a3,10
    2a04:	0a070e63          	beqz	a4,2ac0 <left+0x13c>
    2a08:	00269713          	slli	a4,a3,0x2
    2a0c:	00d70733          	add	a4,a4,a3
    2a10:	00271713          	slli	a4,a4,0x2
    2a14:	01170733          	add	a4,a4,a7
    2a18:	00271713          	slli	a4,a4,0x2
    2a1c:	00e78733          	add	a4,a5,a4
    2a20:	02472703          	lw	a4,36(a4)
    2a24:	08071e63          	bnez	a4,2ac0 <left+0x13c>
    2a28:	00a63713          	sltiu	a4,a2,10
    2a2c:	08070a63          	beqz	a4,2ac0 <left+0x13c>
    2a30:	01433713          	sltiu	a4,t1,20
    2a34:	08070663          	beqz	a4,2ac0 <left+0x13c>
    2a38:	00261713          	slli	a4,a2,0x2
    2a3c:	00c70733          	add	a4,a4,a2
    2a40:	00271713          	slli	a4,a4,0x2
    2a44:	00670733          	add	a4,a4,t1
    2a48:	00271713          	slli	a4,a4,0x2
    2a4c:	00e78733          	add	a4,a5,a4
    2a50:	02472703          	lw	a4,36(a4)
    2a54:	06071663          	bnez	a4,2ac0 <left+0x13c>
    2a58:	00a5b713          	sltiu	a4,a1,10
    2a5c:	06070263          	beqz	a4,2ac0 <left+0x13c>
    2a60:	014e3713          	sltiu	a4,t3,20
    2a64:	04070e63          	beqz	a4,2ac0 <left+0x13c>
    2a68:	00259713          	slli	a4,a1,0x2
    2a6c:	00b70733          	add	a4,a4,a1
    2a70:	00271713          	slli	a4,a4,0x2
    2a74:	01c70733          	add	a4,a4,t3
    2a78:	00271713          	slli	a4,a4,0x2
    2a7c:	00e78733          	add	a4,a5,a4
    2a80:	02472703          	lw	a4,36(a4)
    2a84:	02071e63          	bnez	a4,2ac0 <left+0x13c>
    2a88:	01483713          	sltiu	a4,a6,20
    2a8c:	02070a63          	beqz	a4,2ac0 <left+0x13c>
    2a90:	00a53713          	sltiu	a4,a0,10
    2a94:	02070663          	beqz	a4,2ac0 <left+0x13c>
    2a98:	00251713          	slli	a4,a0,0x2
    2a9c:	00a70733          	add	a4,a4,a0
    2aa0:	00271713          	slli	a4,a4,0x2
    2aa4:	01070733          	add	a4,a4,a6
    2aa8:	00271713          	slli	a4,a4,0x2
    2aac:	00e78733          	add	a4,a5,a4
    2ab0:	02472703          	lw	a4,36(a4)
    2ab4:	00071663          	bnez	a4,2ac0 <left+0x13c>
    2ab8:	03010113          	addi	sp,sp,48
    2abc:	00008067          	ret
    2ac0:	00c12e03          	lw	t3,12(sp)
    2ac4:	01012303          	lw	t1,16(sp)
    2ac8:	01412883          	lw	a7,20(sp)
    2acc:	01812803          	lw	a6,24(sp)
    2ad0:	01c12503          	lw	a0,28(sp)
    2ad4:	02012583          	lw	a1,32(sp)
    2ad8:	02412603          	lw	a2,36(sp)
    2adc:	02812683          	lw	a3,40(sp)
    2ae0:	02c12703          	lw	a4,44(sp)
    2ae4:	01c7a023          	sw	t3,0(a5)
    2ae8:	0067a223          	sw	t1,4(a5)
    2aec:	0117a423          	sw	a7,8(a5)
    2af0:	0107a623          	sw	a6,12(a5)
    2af4:	00a7a823          	sw	a0,16(a5)
    2af8:	00b7aa23          	sw	a1,20(a5)
    2afc:	00c7ac23          	sw	a2,24(a5)
    2b00:	00d7ae23          	sw	a3,28(a5)
    2b04:	02e7a023          	sw	a4,32(a5)
    2b08:	03010113          	addi	sp,sp,48
    2b0c:	00008067          	ret

00002b10 <checkRows>:
    2b10:	00004737          	lui	a4,0x4
    2b14:	ff010113          	addi	sp,sp,-16
    2b18:	8fc70713          	addi	a4,a4,-1796 # 38fc <currentshape>
    2b1c:	00812623          	sw	s0,12(sp)
    2b20:	00912423          	sw	s1,8(sp)
    2b24:	02470393          	addi	t2,a4,36
    2b28:	01300693          	li	a3,19
    2b2c:	00000413          	li	s0,0
    2b30:	04c00513          	li	a0,76
    2b34:	fff00493          	li	s1,-1
    2b38:	00a707b3          	add	a5,a4,a0
    2b3c:	0247a783          	lw	a5,36(a5)
    2b40:	1c078263          	beqz	a5,2d04 <checkRows+0x1f4>
    2b44:	01468793          	addi	a5,a3,20
    2b48:	00279613          	slli	a2,a5,0x2
    2b4c:	00c70633          	add	a2,a4,a2
    2b50:	02462603          	lw	a2,36(a2)
    2b54:	1a060863          	beqz	a2,2d04 <checkRows+0x1f4>
    2b58:	02868613          	addi	a2,a3,40
    2b5c:	00261593          	slli	a1,a2,0x2
    2b60:	00b705b3          	add	a1,a4,a1
    2b64:	0245a583          	lw	a1,36(a1)
    2b68:	18058e63          	beqz	a1,2d04 <checkRows+0x1f4>
    2b6c:	03c68593          	addi	a1,a3,60
    2b70:	00259813          	slli	a6,a1,0x2
    2b74:	01070833          	add	a6,a4,a6
    2b78:	02482803          	lw	a6,36(a6)
    2b7c:	18080463          	beqz	a6,2d04 <checkRows+0x1f4>
    2b80:	05068813          	addi	a6,a3,80
    2b84:	00281893          	slli	a7,a6,0x2
    2b88:	011708b3          	add	a7,a4,a7
    2b8c:	0248a883          	lw	a7,36(a7)
    2b90:	16088a63          	beqz	a7,2d04 <checkRows+0x1f4>
    2b94:	06468893          	addi	a7,a3,100
    2b98:	00289313          	slli	t1,a7,0x2
    2b9c:	00670333          	add	t1,a4,t1
    2ba0:	02432303          	lw	t1,36(t1)
    2ba4:	16030063          	beqz	t1,2d04 <checkRows+0x1f4>
    2ba8:	07868313          	addi	t1,a3,120
    2bac:	00231e13          	slli	t3,t1,0x2
    2bb0:	01c70e33          	add	t3,a4,t3
    2bb4:	024e2e03          	lw	t3,36(t3)
    2bb8:	140e0663          	beqz	t3,2d04 <checkRows+0x1f4>
    2bbc:	08c68e13          	addi	t3,a3,140
    2bc0:	002e1e93          	slli	t4,t3,0x2
    2bc4:	01d70eb3          	add	t4,a4,t4
    2bc8:	024eae83          	lw	t4,36(t4)
    2bcc:	120e8c63          	beqz	t4,2d04 <checkRows+0x1f4>
    2bd0:	0a068e93          	addi	t4,a3,160
    2bd4:	002e9f13          	slli	t5,t4,0x2
    2bd8:	01e70f33          	add	t5,a4,t5
    2bdc:	024f2f03          	lw	t5,36(t5)
    2be0:	120f0263          	beqz	t5,2d04 <checkRows+0x1f4>
    2be4:	0b468f13          	addi	t5,a3,180
    2be8:	002f1f93          	slli	t6,t5,0x2
    2bec:	01f70fb3          	add	t6,a4,t6
    2bf0:	024faf83          	lw	t6,36(t6)
    2bf4:	100f8863          	beqz	t6,2d04 <checkRows+0x1f4>
    2bf8:	00279793          	slli	a5,a5,0x2
    2bfc:	00261613          	slli	a2,a2,0x2
    2c00:	00259593          	slli	a1,a1,0x2
    2c04:	00281813          	slli	a6,a6,0x2
    2c08:	00289893          	slli	a7,a7,0x2
    2c0c:	00231313          	slli	t1,t1,0x2
    2c10:	002e1e13          	slli	t3,t3,0x2
    2c14:	002e9e93          	slli	t4,t4,0x2
    2c18:	002f1f13          	slli	t5,t5,0x2
    2c1c:	00f70fb3          	add	t6,a4,a5
    2c20:	00c70633          	add	a2,a4,a2
    2c24:	00a707b3          	add	a5,a4,a0
    2c28:	00b705b3          	add	a1,a4,a1
    2c2c:	01070833          	add	a6,a4,a6
    2c30:	011708b3          	add	a7,a4,a7
    2c34:	00670333          	add	t1,a4,t1
    2c38:	01c70e33          	add	t3,a4,t3
    2c3c:	01d70eb3          	add	t4,a4,t4
    2c40:	01e70f33          	add	t5,a4,t5
    2c44:	0207a223          	sw	zero,36(a5)
    2c48:	020fa223          	sw	zero,36(t6)
    2c4c:	02062223          	sw	zero,36(a2)
    2c50:	0205a223          	sw	zero,36(a1)
    2c54:	02082223          	sw	zero,36(a6)
    2c58:	0208a223          	sw	zero,36(a7)
    2c5c:	02032223          	sw	zero,36(t1)
    2c60:	020e2223          	sw	zero,36(t3)
    2c64:	020ea223          	sw	zero,36(t4)
    2c68:	020f2223          	sw	zero,36(t5)
    2c6c:	00140413          	addi	s0,s0,1
    2c70:	00a387b3          	add	a5,t2,a0
    2c74:	04068e63          	beqz	a3,2cd0 <checkRows+0x1c0>
    2c78:	ffc7a283          	lw	t0,-4(a5)
    2c7c:	04c7af83          	lw	t6,76(a5)
    2c80:	09c7af03          	lw	t5,156(a5)
    2c84:	0ec7ae83          	lw	t4,236(a5)
    2c88:	13c7ae03          	lw	t3,316(a5)
    2c8c:	18c7a303          	lw	t1,396(a5)
    2c90:	1dc7a883          	lw	a7,476(a5)
    2c94:	22c7a803          	lw	a6,556(a5)
    2c98:	27c7a583          	lw	a1,636(a5)
    2c9c:	2cc7a603          	lw	a2,716(a5)
    2ca0:	0057a023          	sw	t0,0(a5)
    2ca4:	05f7a823          	sw	t6,80(a5)
    2ca8:	0be7a023          	sw	t5,160(a5)
    2cac:	0fd7a823          	sw	t4,240(a5)
    2cb0:	15c7a023          	sw	t3,320(a5)
    2cb4:	1867a823          	sw	t1,400(a5)
    2cb8:	1f17a023          	sw	a7,480(a5)
    2cbc:	2307a823          	sw	a6,560(a5)
    2cc0:	28b7a023          	sw	a1,640(a5)
    2cc4:	2cc7a823          	sw	a2,720(a5)
    2cc8:	ffc78793          	addi	a5,a5,-4
    2ccc:	fa7796e3          	bne	a5,t2,2c78 <checkRows+0x168>
    2cd0:	02072223          	sw	zero,36(a4)
    2cd4:	00a707b3          	add	a5,a4,a0
    2cd8:	0247a783          	lw	a5,36(a5)
    2cdc:	06072a23          	sw	zero,116(a4)
    2ce0:	0c072223          	sw	zero,196(a4)
    2ce4:	10072a23          	sw	zero,276(a4)
    2ce8:	16072223          	sw	zero,356(a4)
    2cec:	1a072a23          	sw	zero,436(a4)
    2cf0:	20072223          	sw	zero,516(a4)
    2cf4:	24072a23          	sw	zero,596(a4)
    2cf8:	2a072223          	sw	zero,676(a4)
    2cfc:	2e072a23          	sw	zero,756(a4)
    2d00:	e40792e3          	bnez	a5,2b44 <checkRows+0x34>
    2d04:	fff68693          	addi	a3,a3,-1
    2d08:	00968663          	beq	a3,s1,2d14 <checkRows+0x204>
    2d0c:	00269513          	slli	a0,a3,0x2
    2d10:	e29ff06f          	j	2b38 <checkRows+0x28>
    2d14:	00040513          	mv	a0,s0
    2d18:	00c12403          	lw	s0,12(sp)
    2d1c:	00812483          	lw	s1,8(sp)
    2d20:	01010113          	addi	sp,sp,16
    2d24:	00008067          	ret

00002d28 <gameOverCheck>:
    2d28:	000047b7          	lui	a5,0x4
    2d2c:	8fc78793          	addi	a5,a5,-1796 # 38fc <currentshape>
    2d30:	0747a683          	lw	a3,116(a5)
    2d34:	0247a503          	lw	a0,36(a5)
    2d38:	0c47a703          	lw	a4,196(a5)
    2d3c:	1147a603          	lw	a2,276(a5)
    2d40:	00d56533          	or	a0,a0,a3
    2d44:	1647a683          	lw	a3,356(a5)
    2d48:	00e56533          	or	a0,a0,a4
    2d4c:	1b47a703          	lw	a4,436(a5)
    2d50:	00c56533          	or	a0,a0,a2
    2d54:	2047a603          	lw	a2,516(a5)
    2d58:	00d56533          	or	a0,a0,a3
    2d5c:	2547a683          	lw	a3,596(a5)
    2d60:	00e56533          	or	a0,a0,a4
    2d64:	2a47a703          	lw	a4,676(a5)
    2d68:	00c56533          	or	a0,a0,a2
    2d6c:	2f47a783          	lw	a5,756(a5)
    2d70:	00d56533          	or	a0,a0,a3
    2d74:	00e56533          	or	a0,a0,a4
    2d78:	00f56533          	or	a0,a0,a5
    2d7c:	00153513          	seqz	a0,a0
    2d80:	00008067          	ret

00002d84 <score>:
    2d84:	00004737          	lui	a4,0x4
    2d88:	8f072783          	lw	a5,-1808(a4) # 38f0 <mult>
    2d8c:	06400813          	li	a6,100
    2d90:	000046b7          	lui	a3,0x4
    2d94:	02f50533          	mul	a0,a0,a5
    2d98:	c6c6a583          	lw	a1,-916(a3) # 3c6c <scores>
    2d9c:	3e700613          	li	a2,999
    2da0:	00100793          	li	a5,1
    2da4:	03050533          	mul	a0,a0,a6
    2da8:	00b50533          	add	a0,a0,a1
    2dac:	00a65e63          	bge	a2,a0,2dc8 <score+0x44>
    2db0:	106257b7          	lui	a5,0x10625
    2db4:	dd378793          	addi	a5,a5,-557 # 10624dd3 <_stack_end+0x10520e03>
    2db8:	02f517b3          	mulh	a5,a0,a5
    2dbc:	41f55613          	srai	a2,a0,0x1f
    2dc0:	4067d793          	srai	a5,a5,0x6
    2dc4:	40c787b3          	sub	a5,a5,a2
    2dc8:	c6a6a623          	sw	a0,-916(a3)
    2dcc:	8ef72823          	sw	a5,-1808(a4)
    2dd0:	00008067          	ret

00002dd4 <rotate>:
    2dd4:	000047b7          	lui	a5,0x4
    2dd8:	8fc78793          	addi	a5,a5,-1796 # 38fc <currentshape>
    2ddc:	0207a583          	lw	a1,32(a5)
    2de0:	0007a703          	lw	a4,0(a5)
    2de4:	0047a683          	lw	a3,4(a5)
    2de8:	0087ae03          	lw	t3,8(a5)
    2dec:	00c7a303          	lw	t1,12(a5)
    2df0:	0107a883          	lw	a7,16(a5)
    2df4:	0147a603          	lw	a2,20(a5)
    2df8:	0187a803          	lw	a6,24(a5)
    2dfc:	01c7a503          	lw	a0,28(a5)
    2e00:	fd010113          	addi	sp,sp,-48
    2e04:	02b12623          	sw	a1,44(sp)
    2e08:	00e12623          	sw	a4,12(sp)
    2e0c:	00d12823          	sw	a3,16(sp)
    2e10:	01c12a23          	sw	t3,20(sp)
    2e14:	00612c23          	sw	t1,24(sp)
    2e18:	01112e23          	sw	a7,28(sp)
    2e1c:	02c12023          	sw	a2,32(sp)
    2e20:	03012223          	sw	a6,36(sp)
    2e24:	02a12423          	sw	a0,40(sp)
    2e28:	00700593          	li	a1,7
    2e2c:	06e5ee63          	bltu	a1,a4,2ea8 <rotate+0xd4>
    2e30:	000045b7          	lui	a1,0x4
    2e34:	00271713          	slli	a4,a4,0x2
    2e38:	dac58593          	addi	a1,a1,-596 # 3dac <CSWTCH.28+0xfc>
    2e3c:	00b70733          	add	a4,a4,a1
    2e40:	00072703          	lw	a4,0(a4)
    2e44:	00070067          	jr	a4
    2e48:	0087a303          	lw	t1,8(a5)
    2e4c:	0187a883          	lw	a7,24(a5)
    2e50:	00c7a803          	lw	a6,12(a5)
    2e54:	01c7a503          	lw	a0,28(a5)
    2e58:	0107a583          	lw	a1,16(a5)
    2e5c:	0207a703          	lw	a4,32(a5)
    2e60:	40c888b3          	sub	a7,a7,a2
    2e64:	40c50533          	sub	a0,a0,a2
    2e68:	40c70733          	sub	a4,a4,a2
    2e6c:	40d30333          	sub	t1,t1,a3
    2e70:	40d80833          	sub	a6,a6,a3
    2e74:	40d585b3          	sub	a1,a1,a3
    2e78:	00660333          	add	t1,a2,t1
    2e7c:	01060833          	add	a6,a2,a6
    2e80:	411688b3          	sub	a7,a3,a7
    2e84:	40a68533          	sub	a0,a3,a0
    2e88:	00c58633          	add	a2,a1,a2
    2e8c:	40e68733          	sub	a4,a3,a4
    2e90:	0067ac23          	sw	t1,24(a5)
    2e94:	0117a423          	sw	a7,8(a5)
    2e98:	0107ae23          	sw	a6,28(a5)
    2e9c:	00a7a623          	sw	a0,12(a5)
    2ea0:	02c7a023          	sw	a2,32(a5)
    2ea4:	00e7a823          	sw	a4,16(a5)
    2ea8:	0147a603          	lw	a2,20(a5)
    2eac:	0047a683          	lw	a3,4(a5)
    2eb0:	01463713          	sltiu	a4,a2,20
    2eb4:	0c070e63          	beqz	a4,2f90 <rotate+0x1bc>
    2eb8:	00a6b713          	sltiu	a4,a3,10
    2ebc:	0c070a63          	beqz	a4,2f90 <rotate+0x1bc>
    2ec0:	00269713          	slli	a4,a3,0x2
    2ec4:	00d70733          	add	a4,a4,a3
    2ec8:	00271713          	slli	a4,a4,0x2
    2ecc:	00c70733          	add	a4,a4,a2
    2ed0:	00271713          	slli	a4,a4,0x2
    2ed4:	00e78733          	add	a4,a5,a4
    2ed8:	02472703          	lw	a4,36(a4)
    2edc:	0a071a63          	bnez	a4,2f90 <rotate+0x1bc>
    2ee0:	0187a603          	lw	a2,24(a5)
    2ee4:	0087a683          	lw	a3,8(a5)
    2ee8:	01463713          	sltiu	a4,a2,20
    2eec:	0a070263          	beqz	a4,2f90 <rotate+0x1bc>
    2ef0:	00a6b713          	sltiu	a4,a3,10
    2ef4:	08070e63          	beqz	a4,2f90 <rotate+0x1bc>
    2ef8:	00269713          	slli	a4,a3,0x2
    2efc:	00d70733          	add	a4,a4,a3
    2f00:	00271713          	slli	a4,a4,0x2
    2f04:	00c70733          	add	a4,a4,a2
    2f08:	00271713          	slli	a4,a4,0x2
    2f0c:	00e78733          	add	a4,a5,a4
    2f10:	02472703          	lw	a4,36(a4)
    2f14:	06071e63          	bnez	a4,2f90 <rotate+0x1bc>
    2f18:	01c7a603          	lw	a2,28(a5)
    2f1c:	00c7a683          	lw	a3,12(a5)
    2f20:	01463713          	sltiu	a4,a2,20
    2f24:	06070663          	beqz	a4,2f90 <rotate+0x1bc>
    2f28:	00a6b713          	sltiu	a4,a3,10
    2f2c:	06070263          	beqz	a4,2f90 <rotate+0x1bc>
    2f30:	00269713          	slli	a4,a3,0x2
    2f34:	00d70733          	add	a4,a4,a3
    2f38:	00271713          	slli	a4,a4,0x2
    2f3c:	00c70733          	add	a4,a4,a2
    2f40:	00271713          	slli	a4,a4,0x2
    2f44:	00e78733          	add	a4,a5,a4
    2f48:	02472703          	lw	a4,36(a4)
    2f4c:	04071263          	bnez	a4,2f90 <rotate+0x1bc>
    2f50:	0207a603          	lw	a2,32(a5)
    2f54:	0107a683          	lw	a3,16(a5)
    2f58:	01463713          	sltiu	a4,a2,20
    2f5c:	02070a63          	beqz	a4,2f90 <rotate+0x1bc>
    2f60:	00a6b713          	sltiu	a4,a3,10
    2f64:	02070663          	beqz	a4,2f90 <rotate+0x1bc>
    2f68:	00269713          	slli	a4,a3,0x2
    2f6c:	00d70733          	add	a4,a4,a3
    2f70:	00271713          	slli	a4,a4,0x2
    2f74:	00c70733          	add	a4,a4,a2
    2f78:	00271713          	slli	a4,a4,0x2
    2f7c:	00e78733          	add	a4,a5,a4
    2f80:	02472703          	lw	a4,36(a4)
    2f84:	00071663          	bnez	a4,2f90 <rotate+0x1bc>
    2f88:	03010113          	addi	sp,sp,48
    2f8c:	00008067          	ret
    2f90:	00c12e03          	lw	t3,12(sp)
    2f94:	01012303          	lw	t1,16(sp)
    2f98:	01412883          	lw	a7,20(sp)
    2f9c:	01812803          	lw	a6,24(sp)
    2fa0:	01c12503          	lw	a0,28(sp)
    2fa4:	02012583          	lw	a1,32(sp)
    2fa8:	02412603          	lw	a2,36(sp)
    2fac:	02812683          	lw	a3,40(sp)
    2fb0:	02c12703          	lw	a4,44(sp)
    2fb4:	01c7a023          	sw	t3,0(a5)
    2fb8:	0067a223          	sw	t1,4(a5)
    2fbc:	0117a423          	sw	a7,8(a5)
    2fc0:	0107a623          	sw	a6,12(a5)
    2fc4:	00a7a823          	sw	a0,16(a5)
    2fc8:	00b7aa23          	sw	a1,20(a5)
    2fcc:	00c7ac23          	sw	a2,24(a5)
    2fd0:	00d7ae23          	sw	a3,28(a5)
    2fd4:	02e7a023          	sw	a4,32(a5)
    2fd8:	03010113          	addi	sp,sp,48
    2fdc:	00008067          	ret
    2fe0:	0087a883          	lw	a7,8(a5)
    2fe4:	0187a803          	lw	a6,24(a5)
    2fe8:	00c7a503          	lw	a0,12(a5)
    2fec:	01c7a583          	lw	a1,28(a5)
    2ff0:	0107a703          	lw	a4,16(a5)
    2ff4:	0207a303          	lw	t1,32(a5)
    2ff8:	40d888b3          	sub	a7,a7,a3
    2ffc:	40d50533          	sub	a0,a0,a3
    3000:	40d70733          	sub	a4,a4,a3
    3004:	40c80833          	sub	a6,a6,a2
    3008:	40c585b3          	sub	a1,a1,a2
    300c:	40c30333          	sub	t1,t1,a2
    3010:	41068833          	sub	a6,a3,a6
    3014:	40b685b3          	sub	a1,a3,a1
    3018:	011608b3          	add	a7,a2,a7
    301c:	00a60533          	add	a0,a2,a0
    3020:	00c70733          	add	a4,a4,a2
    3024:	406686b3          	sub	a3,a3,t1
    3028:	0117ac23          	sw	a7,24(a5)
    302c:	0107a423          	sw	a6,8(a5)
    3030:	00a7ae23          	sw	a0,28(a5)
    3034:	00b7a623          	sw	a1,12(a5)
    3038:	02e7a023          	sw	a4,32(a5)
    303c:	00d7a823          	sw	a3,16(a5)
    3040:	e69ff06f          	j	2ea8 <rotate+0xd4>
    3044:	0087a703          	lw	a4,8(a5)
    3048:	0187a583          	lw	a1,24(a5)
    304c:	00c7a803          	lw	a6,12(a5)
    3050:	01c7a503          	lw	a0,28(a5)
    3054:	0107a303          	lw	t1,16(a5)
    3058:	0207a883          	lw	a7,32(a5)
    305c:	40e686b3          	sub	a3,a3,a4
    3060:	40b60633          	sub	a2,a2,a1
    3064:	40e80833          	sub	a6,a6,a4
    3068:	40b50533          	sub	a0,a0,a1
    306c:	40e30333          	sub	t1,t1,a4
    3070:	40b888b3          	sub	a7,a7,a1
    3074:	00b686b3          	add	a3,a3,a1
    3078:	40c70633          	sub	a2,a4,a2
    307c:	01058833          	add	a6,a1,a6
    3080:	40a70533          	sub	a0,a4,a0
    3084:	006585b3          	add	a1,a1,t1
    3088:	41170733          	sub	a4,a4,a7
    308c:	00d7aa23          	sw	a3,20(a5)
    3090:	00c7a223          	sw	a2,4(a5)
    3094:	0107ae23          	sw	a6,28(a5)
    3098:	00a7a623          	sw	a0,12(a5)
    309c:	02b7a023          	sw	a1,32(a5)
    30a0:	00e7a823          	sw	a4,16(a5)
    30a4:	e05ff06f          	j	2ea8 <rotate+0xd4>
    30a8:	00c7a703          	lw	a4,12(a5)
    30ac:	01c7a583          	lw	a1,28(a5)
    30b0:	0087a803          	lw	a6,8(a5)
    30b4:	0187a503          	lw	a0,24(a5)
    30b8:	0107a303          	lw	t1,16(a5)
    30bc:	0207a883          	lw	a7,32(a5)
    30c0:	40e686b3          	sub	a3,a3,a4
    30c4:	40b60633          	sub	a2,a2,a1
    30c8:	40e80833          	sub	a6,a6,a4
    30cc:	40b50533          	sub	a0,a0,a1
    30d0:	40e30333          	sub	t1,t1,a4
    30d4:	40b888b3          	sub	a7,a7,a1
    30d8:	00b686b3          	add	a3,a3,a1
    30dc:	40c70633          	sub	a2,a4,a2
    30e0:	01058833          	add	a6,a1,a6
    30e4:	40a70533          	sub	a0,a4,a0
    30e8:	006585b3          	add	a1,a1,t1
    30ec:	41170733          	sub	a4,a4,a7
    30f0:	00d7aa23          	sw	a3,20(a5)
    30f4:	00c7a223          	sw	a2,4(a5)
    30f8:	0107ac23          	sw	a6,24(a5)
    30fc:	00a7a423          	sw	a0,8(a5)
    3100:	02b7a023          	sw	a1,32(a5)
    3104:	00e7a823          	sw	a4,16(a5)
    3108:	da1ff06f          	j	2ea8 <rotate+0xd4>
    310c:	0107a703          	lw	a4,16(a5)
    3110:	0207a583          	lw	a1,32(a5)
    3114:	0087a803          	lw	a6,8(a5)
    3118:	0187a503          	lw	a0,24(a5)
    311c:	00c7a303          	lw	t1,12(a5)
    3120:	01c7a883          	lw	a7,28(a5)
    3124:	40e686b3          	sub	a3,a3,a4
    3128:	40b60633          	sub	a2,a2,a1
    312c:	40e80833          	sub	a6,a6,a4
    3130:	40b50533          	sub	a0,a0,a1
    3134:	40e30333          	sub	t1,t1,a4
    3138:	40b888b3          	sub	a7,a7,a1
    313c:	00b686b3          	add	a3,a3,a1
    3140:	40c70633          	sub	a2,a4,a2
    3144:	01058833          	add	a6,a1,a6
    3148:	40a70533          	sub	a0,a4,a0
    314c:	006585b3          	add	a1,a1,t1
    3150:	41170733          	sub	a4,a4,a7
    3154:	00d7aa23          	sw	a3,20(a5)
    3158:	00c7a223          	sw	a2,4(a5)
    315c:	0107ac23          	sw	a6,24(a5)
    3160:	00a7a423          	sw	a0,8(a5)
    3164:	00b7ae23          	sw	a1,28(a5)
    3168:	00e7a623          	sw	a4,12(a5)
    316c:	d3dff06f          	j	2ea8 <rotate+0xd4>

00003170 <rotateBlock>:
    3170:	000047b7          	lui	a5,0x4
    3174:	8fc78793          	addi	a5,a5,-1796 # 38fc <currentshape>
    3178:	0047a303          	lw	t1,4(a5)
    317c:	0147ae03          	lw	t3,20(a5)
    3180:	0087a803          	lw	a6,8(a5)
    3184:	0187a883          	lw	a7,24(a5)
    3188:	00c7a683          	lw	a3,12(a5)
    318c:	01c7a603          	lw	a2,28(a5)
    3190:	0107a703          	lw	a4,16(a5)
    3194:	0207ae83          	lw	t4,32(a5)
    3198:	40a30333          	sub	t1,t1,a0
    319c:	40a80833          	sub	a6,a6,a0
    31a0:	40a686b3          	sub	a3,a3,a0
    31a4:	40a70733          	sub	a4,a4,a0
    31a8:	40be0e33          	sub	t3,t3,a1
    31ac:	40b888b3          	sub	a7,a7,a1
    31b0:	40b60633          	sub	a2,a2,a1
    31b4:	40be8eb3          	sub	t4,t4,a1
    31b8:	41c50e33          	sub	t3,a0,t3
    31bc:	411508b3          	sub	a7,a0,a7
    31c0:	40c50633          	sub	a2,a0,a2
    31c4:	00b30333          	add	t1,t1,a1
    31c8:	01058833          	add	a6,a1,a6
    31cc:	00d586b3          	add	a3,a1,a3
    31d0:	00b70733          	add	a4,a4,a1
    31d4:	41d50533          	sub	a0,a0,t4
    31d8:	01c7a223          	sw	t3,4(a5)
    31dc:	0067aa23          	sw	t1,20(a5)
    31e0:	0117a423          	sw	a7,8(a5)
    31e4:	0107ac23          	sw	a6,24(a5)
    31e8:	00c7a623          	sw	a2,12(a5)
    31ec:	00d7ae23          	sw	a3,28(a5)
    31f0:	00a7a823          	sw	a0,16(a5)
    31f4:	02e7a023          	sw	a4,32(a5)
    31f8:	00008067          	ret

000031fc <down>:
    31fc:	000047b7          	lui	a5,0x4
    3200:	8fc78793          	addi	a5,a5,-1796 # 38fc <currentshape>
    3204:	0147a583          	lw	a1,20(a5)
    3208:	0187a603          	lw	a2,24(a5)
    320c:	01c7a683          	lw	a3,28(a5)
    3210:	0207a703          	lw	a4,32(a5)
    3214:	00158593          	addi	a1,a1,1
    3218:	00160613          	addi	a2,a2,1
    321c:	00168693          	addi	a3,a3,1
    3220:	00170713          	addi	a4,a4,1
    3224:	00b7aa23          	sw	a1,20(a5)
    3228:	00c7ac23          	sw	a2,24(a5)
    322c:	00d7ae23          	sw	a3,28(a5)
    3230:	02e7a023          	sw	a4,32(a5)
    3234:	00008067          	ret

00003238 <isValid>:
    3238:	000047b7          	lui	a5,0x4
    323c:	8fc78793          	addi	a5,a5,-1796 # 38fc <currentshape>
    3240:	0147a603          	lw	a2,20(a5)
    3244:	0047a683          	lw	a3,4(a5)
    3248:	01463713          	sltiu	a4,a2,20
    324c:	0c070c63          	beqz	a4,3324 <isValid+0xec>
    3250:	00a6b713          	sltiu	a4,a3,10
    3254:	0c070863          	beqz	a4,3324 <isValid+0xec>
    3258:	00269713          	slli	a4,a3,0x2
    325c:	00d70733          	add	a4,a4,a3
    3260:	00271713          	slli	a4,a4,0x2
    3264:	00c70733          	add	a4,a4,a2
    3268:	00271713          	slli	a4,a4,0x2
    326c:	00e78733          	add	a4,a5,a4
    3270:	02472503          	lw	a0,36(a4)
    3274:	0a051863          	bnez	a0,3324 <isValid+0xec>
    3278:	0087a683          	lw	a3,8(a5)
    327c:	0187a603          	lw	a2,24(a5)
    3280:	00a6b713          	sltiu	a4,a3,10
    3284:	0a070263          	beqz	a4,3328 <isValid+0xf0>
    3288:	01463713          	sltiu	a4,a2,20
    328c:	08070e63          	beqz	a4,3328 <isValid+0xf0>
    3290:	00269713          	slli	a4,a3,0x2
    3294:	00d70733          	add	a4,a4,a3
    3298:	00271713          	slli	a4,a4,0x2
    329c:	00c70733          	add	a4,a4,a2
    32a0:	00271713          	slli	a4,a4,0x2
    32a4:	00e78733          	add	a4,a5,a4
    32a8:	02472703          	lw	a4,36(a4)
    32ac:	06071e63          	bnez	a4,3328 <isValid+0xf0>
    32b0:	00c7a683          	lw	a3,12(a5)
    32b4:	01c7a603          	lw	a2,28(a5)
    32b8:	00a6b713          	sltiu	a4,a3,10
    32bc:	06070463          	beqz	a4,3324 <isValid+0xec>
    32c0:	01463713          	sltiu	a4,a2,20
    32c4:	06070063          	beqz	a4,3324 <isValid+0xec>
    32c8:	00269713          	slli	a4,a3,0x2
    32cc:	00d70733          	add	a4,a4,a3
    32d0:	00271713          	slli	a4,a4,0x2
    32d4:	00c70733          	add	a4,a4,a2
    32d8:	00271713          	slli	a4,a4,0x2
    32dc:	00e78733          	add	a4,a5,a4
    32e0:	02472503          	lw	a0,36(a4)
    32e4:	04051063          	bnez	a0,3324 <isValid+0xec>
    32e8:	0107a683          	lw	a3,16(a5)
    32ec:	0207a603          	lw	a2,32(a5)
    32f0:	00a6b713          	sltiu	a4,a3,10
    32f4:	02070a63          	beqz	a4,3328 <isValid+0xf0>
    32f8:	01463713          	sltiu	a4,a2,20
    32fc:	02070663          	beqz	a4,3328 <isValid+0xf0>
    3300:	00269713          	slli	a4,a3,0x2
    3304:	00d70733          	add	a4,a4,a3
    3308:	00271713          	slli	a4,a4,0x2
    330c:	00c70733          	add	a4,a4,a2
    3310:	00271713          	slli	a4,a4,0x2
    3314:	00e787b3          	add	a5,a5,a4
    3318:	0247a503          	lw	a0,36(a5)
    331c:	00153513          	seqz	a0,a0
    3320:	00008067          	ret
    3324:	00000513          	li	a0,0
    3328:	00008067          	ret

0000332c <store>:
    332c:	000046b7          	lui	a3,0x4
    3330:	c646a603          	lw	a2,-924(a3) # 3c64 <storing>
    3334:	fd010113          	addi	sp,sp,-48
    3338:	10061863          	bnez	a2,3448 <store+0x11c>
    333c:	000047b7          	lui	a5,0x4
    3340:	8fc78793          	addi	a5,a5,-1796 # 38fc <currentshape>
    3344:	3447a703          	lw	a4,836(a5)
    3348:	00100593          	li	a1,1
    334c:	c6b6a223          	sw	a1,-924(a3)
    3350:	fff00593          	li	a1,-1
    3354:	0eb70e63          	beq	a4,a1,3450 <store+0x124>
    3358:	3487a683          	lw	a3,840(a5)
    335c:	0007a583          	lw	a1,0(a5)
    3360:	0047a603          	lw	a2,4(a5)
    3364:	00d7a223          	sw	a3,4(a5)
    3368:	34c7a683          	lw	a3,844(a5)
    336c:	34b7a223          	sw	a1,836(a5)
    3370:	34c7a423          	sw	a2,840(a5)
    3374:	0087a583          	lw	a1,8(a5)
    3378:	00c7a603          	lw	a2,12(a5)
    337c:	00d7a423          	sw	a3,8(a5)
    3380:	3507a683          	lw	a3,848(a5)
    3384:	34c7a823          	sw	a2,848(a5)
    3388:	0107a603          	lw	a2,16(a5)
    338c:	00d7a623          	sw	a3,12(a5)
    3390:	3547a683          	lw	a3,852(a5)
    3394:	34c7aa23          	sw	a2,852(a5)
    3398:	0147a603          	lw	a2,20(a5)
    339c:	00d7a823          	sw	a3,16(a5)
    33a0:	3587a683          	lw	a3,856(a5)
    33a4:	35c7a883          	lw	a7,860(a5)
    33a8:	3607a803          	lw	a6,864(a5)
    33ac:	3647a503          	lw	a0,868(a5)
    33b0:	34b7a623          	sw	a1,844(a5)
    33b4:	34c7ac23          	sw	a2,856(a5)
    33b8:	01c7a583          	lw	a1,28(a5)
    33bc:	0207a603          	lw	a2,32(a5)
    33c0:	00d7aa23          	sw	a3,20(a5)
    33c4:	0187a683          	lw	a3,24(a5)
    33c8:	00e7a023          	sw	a4,0(a5)
    33cc:	0117ac23          	sw	a7,24(a5)
    33d0:	0107ae23          	sw	a6,28(a5)
    33d4:	02a7a023          	sw	a0,32(a5)
    33d8:	34d7ae23          	sw	a3,860(a5)
    33dc:	00700693          	li	a3,7
    33e0:	36b7a023          	sw	a1,864(a5)
    33e4:	36c7a223          	sw	a2,868(a5)
    33e8:	06e6e063          	bltu	a3,a4,3448 <store+0x11c>
    33ec:	000046b7          	lui	a3,0x4
    33f0:	00271713          	slli	a4,a4,0x2
    33f4:	dcc68693          	addi	a3,a3,-564 # 3dcc <CSWTCH.28+0x11c>
    33f8:	00d70733          	add	a4,a4,a3
    33fc:	00072703          	lw	a4,0(a4)
    3400:	00070067          	jr	a4
    3404:	00600813          	li	a6,6
    3408:	00100593          	li	a1,1
    340c:	00080e93          	mv	t4,a6
    3410:	00058e13          	mv	t3,a1
    3414:	00500f13          	li	t5,5
    3418:	00500313          	li	t1,5
    341c:	8ea8ac23          	sw	a0,-1800(a7)
    3420:	00e7a023          	sw	a4,0(a5)
    3424:	0007aa23          	sw	zero,20(a5)
    3428:	0107a423          	sw	a6,8(a5)
    342c:	00c7ac23          	sw	a2,24(a5)
    3430:	01e7a623          	sw	t5,12(a5)
    3434:	00b7ae23          	sw	a1,28(a5)
    3438:	01d7a823          	sw	t4,16(a5)
    343c:	03c7a023          	sw	t3,32(a5)
    3440:	c606a223          	sw	zero,-924(a3)
    3444:	0067a223          	sw	t1,4(a5)
    3448:	03010113          	addi	sp,sp,48
    344c:	00008067          	ret
    3450:	000048b7          	lui	a7,0x4
    3454:	8f88a503          	lw	a0,-1800(a7) # 38f8 <rng_state>
    3458:	41c65737          	lui	a4,0x41c65
    345c:	e6d70713          	addi	a4,a4,-403 # 41c64e6d <_stack_end+0x41b60e9d>
    3460:	02e50533          	mul	a0,a0,a4
    3464:	000035b7          	lui	a1,0x3
    3468:	03958593          	addi	a1,a1,57 # 3039 <rotate+0x265>
    346c:	92492737          	lui	a4,0x92492
    3470:	49370713          	addi	a4,a4,1171 # 92492493 <_stack_end+0x9238e4c3>
    3474:	0007ae83          	lw	t4,0(a5)
    3478:	0047ae03          	lw	t3,4(a5)
    347c:	0087a303          	lw	t1,8(a5)
    3480:	0107a803          	lw	a6,16(a5)
    3484:	00c7af83          	lw	t6,12(a5)
    3488:	00b50533          	add	a0,a0,a1
    348c:	00151f13          	slli	t5,a0,0x1
    3490:	011f5593          	srli	a1,t5,0x11
    3494:	02e59733          	mulh	a4,a1,a4
    3498:	0147af03          	lw	t5,20(a5)
    349c:	35d7a223          	sw	t4,836(a5)
    34a0:	35c7a423          	sw	t3,840(a5)
    34a4:	0187ae83          	lw	t4,24(a5)
    34a8:	01c7ae03          	lw	t3,28(a5)
    34ac:	3467a623          	sw	t1,844(a5)
    34b0:	3507aa23          	sw	a6,852(a5)
    34b4:	0207a303          	lw	t1,32(a5)
    34b8:	35f7a823          	sw	t6,848(a5)
    34bc:	00b70733          	add	a4,a4,a1
    34c0:	40275713          	srai	a4,a4,0x2
    34c4:	00371813          	slli	a6,a4,0x3
    34c8:	40e80733          	sub	a4,a6,a4
    34cc:	40e58733          	sub	a4,a1,a4
    34d0:	00170713          	addi	a4,a4,1
    34d4:	35e7ac23          	sw	t5,856(a5)
    34d8:	35d7ae23          	sw	t4,860(a5)
    34dc:	37c7a023          	sw	t3,864(a5)
    34e0:	3667a223          	sw	t1,868(a5)
    34e4:	00700593          	li	a1,7
    34e8:	1ce5e263          	bltu	a1,a4,36ac <store+0x380>
    34ec:	00004837          	lui	a6,0x4
    34f0:	dec80813          	addi	a6,a6,-532 # 3dec <CSWTCH.28+0x13c>
    34f4:	00271593          	slli	a1,a4,0x2
    34f8:	010585b3          	add	a1,a1,a6
    34fc:	0005a583          	lw	a1,0(a1)
    3500:	00058067          	jr	a1
    3504:	00500693          	li	a3,5
    3508:	00400593          	li	a1,4
    350c:	00100713          	li	a4,1
    3510:	00600613          	li	a2,6
    3514:	0007aa23          	sw	zero,20(a5)
    3518:	0007ac23          	sw	zero,24(a5)
    351c:	00d7a223          	sw	a3,4(a5)
    3520:	00d7a623          	sw	a3,12(a5)
    3524:	00b7a423          	sw	a1,8(a5)
    3528:	00e7ae23          	sw	a4,28(a5)
    352c:	02e7a023          	sw	a4,32(a5)
    3530:	00c7a823          	sw	a2,16(a5)
    3534:	f15ff06f          	j	3448 <store+0x11c>
    3538:	00500713          	li	a4,5
    353c:	00100593          	li	a1,1
    3540:	00200613          	li	a2,2
    3544:	00300693          	li	a3,3
    3548:	0007aa23          	sw	zero,20(a5)
    354c:	00e7a223          	sw	a4,4(a5)
    3550:	00e7a423          	sw	a4,8(a5)
    3554:	00e7a623          	sw	a4,12(a5)
    3558:	00e7a823          	sw	a4,16(a5)
    355c:	00b7ac23          	sw	a1,24(a5)
    3560:	00c7ae23          	sw	a2,28(a5)
    3564:	02d7a023          	sw	a3,32(a5)
    3568:	ee1ff06f          	j	3448 <store+0x11c>
    356c:	00500613          	li	a2,5
    3570:	00600693          	li	a3,6
    3574:	00100713          	li	a4,1
    3578:	0007aa23          	sw	zero,20(a5)
    357c:	0007ac23          	sw	zero,24(a5)
    3580:	00c7a223          	sw	a2,4(a5)
    3584:	00c7a623          	sw	a2,12(a5)
    3588:	00d7a423          	sw	a3,8(a5)
    358c:	00d7a823          	sw	a3,16(a5)
    3590:	00e7ae23          	sw	a4,28(a5)
    3594:	02e7a023          	sw	a4,32(a5)
    3598:	eb1ff06f          	j	3448 <store+0x11c>
    359c:	00500713          	li	a4,5
    35a0:	00100593          	li	a1,1
    35a4:	00200693          	li	a3,2
    35a8:	00600613          	li	a2,6
    35ac:	0007aa23          	sw	zero,20(a5)
    35b0:	00e7a223          	sw	a4,4(a5)
    35b4:	00e7a423          	sw	a4,8(a5)
    35b8:	00e7a623          	sw	a4,12(a5)
    35bc:	00b7ac23          	sw	a1,24(a5)
    35c0:	00d7ae23          	sw	a3,28(a5)
    35c4:	02d7a023          	sw	a3,32(a5)
    35c8:	00c7a823          	sw	a2,16(a5)
    35cc:	e7dff06f          	j	3448 <store+0x11c>
    35d0:	00500713          	li	a4,5
    35d4:	00100593          	li	a1,1
    35d8:	00200693          	li	a3,2
    35dc:	00400613          	li	a2,4
    35e0:	fcdff06f          	j	35ac <store+0x280>
    35e4:	00500713          	li	a4,5
    35e8:	00400593          	li	a1,4
    35ec:	00600613          	li	a2,6
    35f0:	00100693          	li	a3,1
    35f4:	0007aa23          	sw	zero,20(a5)
    35f8:	0007ac23          	sw	zero,24(a5)
    35fc:	0007ae23          	sw	zero,28(a5)
    3600:	00e7a223          	sw	a4,4(a5)
    3604:	00e7a823          	sw	a4,16(a5)
    3608:	00b7a423          	sw	a1,8(a5)
    360c:	00c7a623          	sw	a2,12(a5)
    3610:	02d7a023          	sw	a3,32(a5)
    3614:	e35ff06f          	j	3448 <store+0x11c>
    3618:	00500693          	li	a3,5
    361c:	00600593          	li	a1,6
    3620:	00100713          	li	a4,1
    3624:	00400613          	li	a2,4
    3628:	eedff06f          	j	3514 <store+0x1e8>
    362c:	00100593          	li	a1,1
    3630:	00058e13          	mv	t3,a1
    3634:	00400813          	li	a6,4
    3638:	00500f13          	li	t5,5
    363c:	00600e93          	li	t4,6
    3640:	dd9ff06f          	j	3418 <store+0xec>
    3644:	00100593          	li	a1,1
    3648:	00058e13          	mv	t3,a1
    364c:	00070813          	mv	a6,a4
    3650:	00500f13          	li	t5,5
    3654:	00400e93          	li	t4,4
    3658:	dc1ff06f          	j	3418 <store+0xec>
    365c:	00000593          	li	a1,0
    3660:	00070e93          	mv	t4,a4
    3664:	00400813          	li	a6,4
    3668:	00600f13          	li	t5,6
    366c:	00100e13          	li	t3,1
    3670:	da9ff06f          	j	3418 <store+0xec>
    3674:	00500813          	li	a6,5
    3678:	00200593          	li	a1,2
    367c:	00080f13          	mv	t5,a6
    3680:	00058e13          	mv	t3,a1
    3684:	00070e93          	mv	t4,a4
    3688:	00100613          	li	a2,1
    368c:	d8dff06f          	j	3418 <store+0xec>
    3690:	00500813          	li	a6,5
    3694:	00200593          	li	a1,2
    3698:	00080f13          	mv	t5,a6
    369c:	00058e13          	mv	t3,a1
    36a0:	00100613          	li	a2,1
    36a4:	00600e93          	li	t4,6
    36a8:	d71ff06f          	j	3418 <store+0xec>
    36ac:	00500813          	li	a6,5
    36b0:	00080f13          	mv	t5,a6
    36b4:	00080e93          	mv	t4,a6
    36b8:	00100613          	li	a2,1
    36bc:	00200593          	li	a1,2
    36c0:	00300e13          	li	t3,3
    36c4:	d55ff06f          	j	3418 <store+0xec>

000036c8 <start>:
    36c8:	000046b7          	lui	a3,0x4
    36cc:	8e86a783          	lw	a5,-1816(a3) # 38e8 <fake.0>
    36d0:	8ec6a503          	lw	a0,-1812(a3)
    36d4:	ff010113          	addi	sp,sp,-16
    36d8:	00178593          	addi	a1,a5,1
    36dc:	00004737          	lui	a4,0x4
    36e0:	00f5b633          	sltu	a2,a1,a5
    36e4:	00a60633          	add	a2,a2,a0
    36e8:	00112623          	sw	ra,12(sp)
    36ec:	8fc70513          	addi	a0,a4,-1796 # 38fc <currentshape>
    36f0:	fff00713          	li	a4,-1
    36f4:	8eb6a423          	sw	a1,-1816(a3)
    36f8:	8ec6a623          	sw	a2,-1812(a3)
    36fc:	34e52223          	sw	a4,836(a0)
    3700:	00079463          	bnez	a5,3708 <start+0x40>
    3704:	00100793          	li	a5,1
    3708:	41c65737          	lui	a4,0x41c65
    370c:	e6d70713          	addi	a4,a4,-403 # 41c64e6d <_stack_end+0x41b60e9d>
    3710:	02e787b3          	mul	a5,a5,a4
    3714:	000036b7          	lui	a3,0x3
    3718:	03968693          	addi	a3,a3,57 # 3039 <rotate+0x265>
    371c:	92492737          	lui	a4,0x92492
    3720:	49370713          	addi	a4,a4,1171 # 92492493 <_stack_end+0x9238e4c3>
    3724:	00004637          	lui	a2,0x4
    3728:	00d787b3          	add	a5,a5,a3
    372c:	00179593          	slli	a1,a5,0x1
    3730:	0115d693          	srli	a3,a1,0x11
    3734:	02e69733          	mulh	a4,a3,a4
    3738:	8ef62c23          	sw	a5,-1800(a2) # 38f8 <rng_state>
    373c:	00d707b3          	add	a5,a4,a3
    3740:	4027d793          	srai	a5,a5,0x2
    3744:	00379713          	slli	a4,a5,0x3
    3748:	40f707b3          	sub	a5,a4,a5
    374c:	40f687b3          	sub	a5,a3,a5
    3750:	00178793          	addi	a5,a5,1
    3754:	00f52023          	sw	a5,0(a0)
    3758:	bddfe0ef          	jal	2334 <setpos>
    375c:	000047b7          	lui	a5,0x4
    3760:	8fc78513          	addi	a0,a5,-1796 # 38fc <currentshape>
    3764:	000046b7          	lui	a3,0x4
    3768:	02450793          	addi	a5,a0,36
    376c:	07450713          	addi	a4,a0,116
    3770:	c606a223          	sw	zero,-924(a3) # 3c64 <storing>
    3774:	0007a023          	sw	zero,0(a5)
    3778:	0407a823          	sw	zero,80(a5)
    377c:	0a07a023          	sw	zero,160(a5)
    3780:	0e07a823          	sw	zero,240(a5)
    3784:	1407a023          	sw	zero,320(a5)
    3788:	1807a823          	sw	zero,400(a5)
    378c:	1e07a023          	sw	zero,480(a5)
    3790:	2207a823          	sw	zero,560(a5)
    3794:	2807a023          	sw	zero,640(a5)
    3798:	2c07a823          	sw	zero,720(a5)
    379c:	00478793          	addi	a5,a5,4
    37a0:	fce79ae3          	bne	a5,a4,3774 <start+0xac>
    37a4:	00c12083          	lw	ra,12(sp)
    37a8:	000047b7          	lui	a5,0x4
    37ac:	c607a623          	sw	zero,-916(a5) # 3c6c <scores>
    37b0:	00004637          	lui	a2,0x4
    37b4:	00100793          	li	a5,1
    37b8:	000046b7          	lui	a3,0x4
    37bc:	00004737          	lui	a4,0x4
    37c0:	8ef62a23          	sw	a5,-1804(a2) # 38f4 <gameon>
    37c4:	8ef6a823          	sw	a5,-1808(a3) # 38f0 <mult>
    37c8:	c6072423          	sw	zero,-920(a4) # 3c68 <invocations>
    37cc:	01010113          	addi	sp,sp,16
    37d0:	00008067          	ret

000037d4 <hex2asc>:
    37d4:	00a00513          	li	a0,10
    37d8:	ffc10113          	addi	sp,sp,-4
    37dc:	00112023          	sw	ra,0(sp)
    37e0:	018000ef          	jal	37f8 <hexasc>
    37e4:	00b00893          	li	a7,11
    37e8:	00000073          	ecall
    37ec:	00012083          	lw	ra,0(sp)
    37f0:	00410113          	addi	sp,sp,4
    37f4:	00008067          	ret

000037f8 <hexasc>:
    37f8:	00f57513          	andi	a0,a0,15
    37fc:	00900293          	li	t0,9
    3800:	00a2d863          	bge	t0,a0,3810 <nummerasc>
    3804:	03750513          	addi	a0,a0,55
    3808:	07f57513          	andi	a0,a0,127
    380c:	00008067          	ret

00003810 <nummerasc>:
    3810:	03050513          	addi	a0,a0,48
    3814:	07f57513          	andi	a0,a0,127
    3818:	00008067          	ret

Disassembly of section .srodata:

00003edc <GLYPH_COLON.0>:
    3edc:	0400                	.insn	2, 0x0400
    3ede:	0004                	.insn	2, 0x0004
    3ee0:	0404                	.insn	2, 0x0404
	...

00003ee4 <GLYPH_9.1>:
    3ee4:	110e                	.insn	2, 0x110e
    3ee6:	0f11                	.insn	2, 0x0f11
    3ee8:	0201                	.insn	2, 0x0201
    3eea:	000c                	.insn	2, 0x000c

00003eec <GLYPH_8.2>:
    3eec:	110e                	.insn	2, 0x110e
    3eee:	0e11                	.insn	2, 0x0e11
    3ef0:	1111                	.insn	2, 0x1111
    3ef2:	000e                	.insn	2, 0x000e

00003ef4 <GLYPH_7.3>:
    3ef4:	011f 0402 0808      	.insn	6, 0x08080402011f
    3efa:	0008                	.insn	2, 0x0008

00003efc <GLYPH_6.4>:
    3efc:	0806                	.insn	2, 0x0806
    3efe:	1e10                	.insn	2, 0x1e10
    3f00:	1111                	.insn	2, 0x1111
    3f02:	000e                	.insn	2, 0x000e

00003f04 <GLYPH_5.5>:
    3f04:	101f 011e 1101      	.insn	6, 0x1101011e101f
    3f0a:	000e                	.insn	2, 0x000e

00003f0c <GLYPH_4.6>:
    3f0c:	0602                	.insn	2, 0x0602
    3f0e:	120a                	.insn	2, 0x120a
    3f10:	021f 0002       	.insn	6, 0x011e0002021f

00003f14 <GLYPH_3.7>:
    3f14:	011e                	.insn	2, 0x011e
    3f16:	0e01                	.insn	2, 0x0e01
    3f18:	0101                	.insn	2, 0x0101
    3f1a:	001e                	.insn	2, 0x001e

00003f1c <GLYPH_2.8>:
    3f1c:	110e                	.insn	2, 0x110e
    3f1e:	0601                	.insn	2, 0x0601
    3f20:	1008                	.insn	2, 0x1008
    3f22:	001f        	.insn	6, 0x04040c04001f

00003f24 <GLYPH_1.9>:
    3f24:	0c04                	.insn	2, 0x0c04
    3f26:	0404                	.insn	2, 0x0404
    3f28:	0404                	.insn	2, 0x0404
    3f2a:	000e                	.insn	2, 0x000e

00003f2c <GLYPH_0.10>:
    3f2c:	110e                	.insn	2, 0x110e
    3f2e:	11191513          	.insn	4, 0x11191513
    3f32:	000e                	.insn	2, 0x000e

00003f34 <GLYPH_C.11>:
    3f34:	110e                	.insn	2, 0x110e
    3f36:	1010                	.insn	2, 0x1010
    3f38:	1110                	.insn	2, 0x1110
    3f3a:	000e                	.insn	2, 0x000e

00003f3c <GLYPH_G.12>:
    3f3c:	110e                	.insn	2, 0x110e
    3f3e:	1710                	.insn	2, 0x1710
    3f40:	1111                	.insn	2, 0x1111
    3f42:	000e                	.insn	2, 0x000e

00003f44 <GLYPH_V.13>:
    3f44:	1111                	.insn	2, 0x1111
    3f46:	1111                	.insn	2, 0x1111
    3f48:	0a0a                	.insn	2, 0x0a0a
    3f4a:	0004                	.insn	2, 0x0004

00003f4c <GLYPH_M.14>:
    3f4c:	1b11                	.insn	2, 0x1b11
    3f4e:	1115                	.insn	2, 0x1115
    3f50:	1111                	.insn	2, 0x1111
    3f52:	0011                	.insn	2, 0x0011

00003f54 <GLYPH_A.15>:
    3f54:	110e                	.insn	2, 0x110e
    3f56:	1f11                	.insn	2, 0x1f11
    3f58:	1111                	.insn	2, 0x1111
    3f5a:	0011                	.insn	2, 0x0011

00003f5c <GLYPH_N.16>:
    3f5c:	1911                	.insn	2, 0x1911
    3f5e:	1315                	.insn	2, 0x1315
    3f60:	1111                	.insn	2, 0x1111
    3f62:	0011                	.insn	2, 0x0011

00003f64 <GLYPH_O.17>:
    3f64:	110e                	.insn	2, 0x110e
    3f66:	1111                	.insn	2, 0x1111
    3f68:	1111                	.insn	2, 0x1111
    3f6a:	000e                	.insn	2, 0x000e

00003f6c <GLYPH_U.18>:
    3f6c:	1111                	.insn	2, 0x1111
    3f6e:	1111                	.insn	2, 0x1111
    3f70:	1111                	.insn	2, 0x1111
    3f72:	000e                	.insn	2, 0x000e

00003f74 <GLYPH_B.19>:
    3f74:	111e                	.insn	2, 0x111e
    3f76:	111e                	.insn	2, 0x111e
    3f78:	1111                	.insn	2, 0x1111
    3f7a:	001e                	.insn	2, 0x001e

00003f7c <GLYPH_P.20>:
    3f7c:	111e                	.insn	2, 0x111e
    3f7e:	101e                	.insn	2, 0x101e
    3f80:	1010                	.insn	2, 0x1010
    3f82:	0010                	.insn	2, 0x0010

00003f84 <GLYPH_S.21>:
    3f84:	010e100f          	.insn	4, 0x010e100f
    3f88:	0201                	.insn	2, 0x0201
    3f8a:	001e                	.insn	2, 0x001e

00003f8c <GLYPH_I.22>:
    3f8c:	040e                	.insn	2, 0x040e
    3f8e:	0404                	.insn	2, 0x0404
    3f90:	0404                	.insn	2, 0x0404
    3f92:	000e                	.insn	2, 0x000e

00003f94 <GLYPH_R.23>:
    3f94:	111e                	.insn	2, 0x111e
    3f96:	141e                	.insn	2, 0x141e
    3f98:	1112                	.insn	2, 0x1112
    3f9a:	0011                	.insn	2, 0x0011

00003f9c <GLYPH_E.24>:
    3f9c:	101f 101e 101e      	.insn	6, 0x101e101e101f
    3fa2:	001f        	.insn	6, 0x0404041f001f

00003fa4 <GLYPH_T.25>:
    3fa4:	041f 0404 0404      	.insn	6, 0x04040404041f
    3faa:	0004                	.insn	2, 0x0004

00003fac <GLYPH_SPACE.26>:
	...

00003fb4 <COLOR_ORANGE>:
    3fb4:	ccf0                	.insn	2, 0xccf0
	...

00003fb8 <COLOR_PURPLE>:
    3fb8:	000062a3          	.insn	4, 0x62a3

00003fbc <COLOR_CYAN>:
    3fbc:	0000121b          	.insn	4, 0x121b

00003fc0 <COLOR_YELLOW>:
    3fc0:	b4fc                	.insn	2, 0xb4fc
	...

00003fc4 <COLOR_GREEN>:
    3fc4:	0c14                	.insn	2, 0x0c14
	...

00003fc8 <COLOR_BLUE>:
    3fc8:	0102                	.insn	2, 0x0102
	...

00003fcc <COLOR_RED>:
    3fcc:	60c0                	.insn	2, 0x60c0
